ccopy_reg
_reconstructor
p1
(cnetworkx.classes.digraph
DiGraph
p2
c__builtin__
object
p3
NtRp4
(dp5
S'node'
p6
(dp7
I885393827103727616
(dp8
S'degree'
p9
I1
sS'betweenness_centrality'
p10
F0
ssI842714107178450944
(dp11
g9
I1
sg10
F0
ssI906590439578460162
(dp12
g9
I1
sg10
F0
ssI900031402845978627
(dp13
g9
I1
sg10
F0
ssI885697397564866564
(dp14
g9
I1
sg10
F0
ssI906587332157026309
(dp15
g9
I1
sg10
F0
ssI796902352963764224
(dp16
g9
I1
sg10
F0
ssI906586171278585857
(dp17
g9
I1
sg10
F0
ssI2675288072
(dp18
sI266420236
(dp19
sI901941258318479362
(dp20
g9
I1
sg10
F0
ssI906589926510260225
(dp21
g9
I1
sg10
F0
ssI20733972
(dp22
g9
I1
sg10
F0
ssI906590003328937984
(dp23
g9
I1
sg10
F0
ssI14075928
(dp24
sI2990729241
(dp25
g9
I1
sg10
F0
ssI106762266
(dp26
sI191450458
(dp27
sI817873519954587653
(dp28
g9
I1
sg10
F0
ssI976900128
(dp29
sI3457675883
(dp30
sI823367015830323201
(dp31
g9
I1
sg10
F0
ssI906589922886373382
(dp32
g9
I1
sg10
F0
ssI108648487
(dp33
g9
I2
sg10
F0
ssI14850088
(dp34
sI906589970009346055
(dp35
g9
I2
sg10
F0
ssI365939318
(dp36
sI906583132551487490
(dp37
g9
I1
sg10
F0
ssI214409268
(dp38
sI117743669
(dp39
g9
I1
sg10
F0
ssI197545311
(dp40
g9
I1
sg10
F0
ssI10729532
(dp41
g9
I1
sg10
F0
ssI197810238
(dp42
sI61440064
(dp43
sI3283517792
(dp44
sI970207298
(dp45
g9
I1
sg10
F0
ssI384951307
(dp46
sI2212489284
(dp47
sI443215941
(dp48
sI765515105576550400
(dp49
sI738894256593502208
(dp50
sI48304141
(dp51
g9
I1
sg10
F0
ssI29995782
(dp52
sI1691574356
(dp53
sI4827631701
(dp54
sI731342744157741056
(dp55
sI2214869083
(dp56
sI49049693
(dp57
g9
I1
sg10
F0
ssI433741920
(dp58
g9
I1
sg10
F0
ssI429857924
(dp59
sI1485733987
(dp60
sI1221025892
(dp61
g9
I1
sg10
F0
ssI784401549778911232
(dp62
g9
I1
sg10
F0
ssI2772648048
(dp63
sI98314354
(dp64
sI5625972
(dp65
g9
I1
sg10
F0
ssI4916410486
(dp66
g9
I1
sg10
F0
ssI2750877815
(dp67
g9
I1
sg10
F0
ssI1243555962
(dp68
g9
I1
sg10
F0
ssI223166587
(dp69
g9
I1
sg10
F0
ssI48906364
(dp70
g9
I1
sg10
F0
ssI887063489625325572
(dp71
sI14669951
(dp72
g9
I1
sg10
F0
ssI3064789121
(dp73
sI497250434
(dp74
sI3486152835
(dp75
g9
I2
sg10
F0
ssI2719944836
(dp76
sI235261974
(dp77
sI906590151605751808
(dp78
g9
I1
sg10
F0
ssI5392522
(dp79
sI20316308
(dp80
sI3267350677
(dp81
g9
I1
sg10
F0
ssI50294938
(dp82
g9
I1
sg10
F0
ssI28113052
(dp83
g9
I1
sg10
F0
ssI1532061
(dp84
g9
I1
sg10
F0
ssI342599843
(dp85
sI816298918468259841
(dp86
g9
I1
sg10
F0
ssI4025225381
(dp87
g9
I1
sg10
F0
ssI812376663560519680
(dp88
sI80361644
(dp89
g9
I1
sg10
F0
ssI143024790
(dp90
sI394465457
(dp91
sI16548023
(dp92
sI813749727170793473
(dp93
sI887878687
(dp94
g9
I1
sg10
F0
ssI838672863716589568
(dp95
sI802392555807735808
(dp96
g9
I2
sg10
F0
ssI19685572
(dp97
g9
I2
sg10
F0
ssI3353579894
(dp98
sI994511047
(dp99
sI790728
(dp100
sI704482666955976704
(dp101
sI14989516
(dp102
g9
I1
sg10
F0
ssI376967376
(dp103
g9
I1
sg10
F0
ssI25073877
(dp104
g9
I40
sg10
F0.0020244964065188787
ssI906588395492794368
(dp105
g9
I1
sg10
F0
ssI68522205
(dp106
sI240664803
(dp107
sI813286
(dp108
g9
I1
sg10
F0
ssI896980623809818624
(dp109
g9
I1
sg10
F0
ssI21332200
(dp110
g9
I1
sg10
F0
ssI139092348
(dp111
sI1345476306
(dp112
sI855999418411208704
(dp113
sI381868271
(dp114
sI22425840
(dp115
g9
I1
sg10
F0
ssI837883810356334593
(dp116
sI197624060
(dp117
g9
I1
sg10
F0
ssI150317310
(dp118
g9
I1
sg10
F0
ssI434829567
(dp119
g9
I1
sg10
F0
ssI197742170
(dp120
sI762396950339747840
(dp121
g9
I1
sg10
F0
ssI720293443260456960
(dp122
g9
I1
sg10
F0
ssI417650980
(dp123
sI96071944
(dp124
g9
I2
sg10
F0
ssI29442313
(dp125
g9
I40
sg10
F0.0020244964065188787
ssI14206795
(dp126
g9
I1
sg10
F0
ssI564173073
(dp127
g9
I1
sg10
F0
ssI14749971
(dp128
g9
I1
sg10
F0
ssI197574940
(dp129
g9
I40
sg10
F0.0042413199716570503
ssI197660958
(dp130
g9
I1
sg10
F0
ssI814231264765026305
(dp131
sI972558726
(dp132
sI9300262
(dp133
sI906582360405278720
(dp134
g9
I1
sg10
F0
ssI3398633772
(dp135
g9
I1
sg10
F0
ssI197634351
(dp136
g9
I1
sg10
F0
ssI26102066
(dp137
g9
I1
sg10
F0
ssI468640052
(dp138
sI197570872
(dp139
sI11348282
(dp140
sI307423967
(dp141
sI355367229
(dp142
g9
I1
sg10
F0
ssI388677953
(dp143
sI46541122
(dp144
g9
I41
sg10
F0.0053446705132098394
ssI33667397
(dp145
sI594874694
(dp146
g9
I1
sg10
F0
ssI48996679
(dp147
g9
I1
sg10
F0
ssI2257558088
(dp148
g9
I1
sg10
F0
ssI906133598553681920
(dp149
g9
I1
sg10
F0
ssI2198878544
(dp150
sI57334102
(dp151
g9
I1
sg10
F0
ssI55064920
(dp152
g9
I1
sg10
F0
ssI82071897
(dp153
sI2508941658
(dp154
sI4871584091
(dp155
g9
I1
sg10
F0
ssI30358586
(dp156
g9
I1
sg10
F0
ssI501270879
(dp157
sI65069408
(dp158
g9
I1
sg10
F0
ssI906583761285996544
(dp159
g9
I1
sg10
F0
ssI3146115426
(dp160
sI104063340
(dp161
g9
I1
sg10
F0
ssI905180324937785345
(dp162
sI906588868471902208
(dp163
g9
I1
sg10
F0
ssI787772328398692352
(dp164
sI637196658
(dp165
g9
I1
sg10
F0
ssI211648886
(dp166
sI107037417
(dp167
g9
I1
sg10
F0
ssI267338104
(dp168
sI30663036
(dp169
g9
I1
sg10
F0
ssI16249213
(dp170
g9
I1
sg10
F0
ssI2155579778
(dp171
g9
I1
sg10
F0
ssI828347623098560512
(dp172
g9
I1
sg10
F0
ssI217749896
(dp173
g9
I1
sg10
F0
ssI864470444245757952
(dp174
g9
I1
sg10
F0
ssI208232847
(dp175
g9
I1
sg10
F0
ssI92449170
(dp176
g9
I1
sg10
F0
ssI479863188
(dp177
sI30364057
(dp178
sI846380717349240833
(dp179
g9
I1
sg10
F0
ssI477667743
(dp180
g9
I1
sg10
F0
ssI1001048480
(dp181
sI222726561
(dp182
g9
I1
sg10
F0
ssI779613876228730881
(dp183
g9
I1
sg10
F0
ssI890502325474865152
(dp184
sI124963911
(dp185
g9
I1
sg10
F0
ssI1169637804
(dp186
sI812462389991854080
(dp187
g9
I1
sg10
F0
ssI471287735
(dp188
sI2843515318
(dp189
g9
I1
sg10
F0
ssI3882117561
(dp190
g9
I1
sg10
F0
ssI128148127
(dp191
sI197589439
(dp192
g9
I1
sg10
F0
ssI37999041
(dp193
sI1306925508
(dp194
g9
I1
sg10
F0
ssI3247776197
(dp195
sI2250760609
(dp196
g9
I1
sg10
F0
ssI716510667243651072
(dp197
g9
I1
sg10
F0
ssI416676471
(dp198
sI85772748
(dp199
sI185510351
(dp200
sI192862672
(dp201
sI1461170642
(dp202
sI873261523
(dp203
g9
I1
sg10
F0
ssI736763562530471937
(dp204
g9
I2
sg10
F0
ssI15933910
(dp205
g9
I1
sg10
F0
ssI4782551
(dp206
g9
I1
sg10
F0
ssI254337496
(dp207
sI118115748
(dp208
g9
I1
sg10
F0
ssI963637723
(dp209
sI104673756
(dp210
g9
I40
sg10
F0.0020244964065188787
ssI588200416
(dp211
sI906590655278919681
(dp212
g9
I1
sg10
F0
ssI55181796
(dp213
sI165549137
(dp214
sI147335250
(dp215
sI755821622641254401
(dp216
sI187881969
(dp217
sI325890557
(dp218
sI56769022
(dp219
g9
I1
sg10
F0
ssI893765510285983744
(dp220
g9
I1
sg10
F0
ssI549925200
(dp221
sI359340545
(dp222
g9
I1
sg10
F0
ssI8442372
(dp223
g9
I1
sg10
F0
ssI44998279
(dp224
sI906588016004579328
(dp225
g9
I1
sg10
F0
ssI197726728
(dp226
g9
I1
sg10
F0
ssI9376172
(dp227
sI197553874
(dp228
sI55835157
(dp229
sI277948950
(dp230
sI2181560068
(dp231
sI1404590618
(dp232
g9
I1
sg10
F0
ssI182837791
(dp233
g9
I1
sg10
F0
ssI857543865724809217
(dp234
g9
I1
sg10
F0
ssI4833544738
(dp235
sI189293091
(dp236
sI838142099035996161
(dp237
g9
I1
sg10
F0
ssI1689702150
(dp238
sI906590687491006464
(dp239
g9
I2
sg10
F0
ssI1322416681
(dp240
g9
I1
sg10
F0
ssI19697415
(dp241
g9
I1
sg10
F0
ssI475802156
(dp242
g9
I1
sg10
F0
ssI44196397
(dp243
sI16399908
(dp244
sI374481331
(dp245
sI15143478
(dp246
sI1924071992
(dp247
sI554666554
(dp248
sI3297575484
(dp249
sI77316669
(dp250
g9
I1
sg10
F0
ssI5815392
(dp251
sI3340073541
(dp252
sI38617670
(dp253
sI2697757255
(dp254
sI1646934600
(dp255
g9
I1
sg10
F0
ssI4643811147
(dp256
g9
I1
sg10
F0
ssI386263630
(dp257
g9
I1
sg10
F0
ssI98554447
(dp258
g9
I1
sg10
F0
ssI109998675
(dp259
sI52120149
(dp260
g9
I4
sg10
F0.0030063771636805346
ssI2768703929
(dp261
sI1521687128
(dp262
g9
I1
sg10
F0
ssI143303257
(dp263
sI545561179
(dp264
sI197517921
(dp265
g9
I1
sg10
F0
ssI822376728723070976
(dp266
g9
I1
sg10
F0
ssI1908105828
(dp267
g9
I1
sg10
F0
ssI21918310
(dp268
sI891081498790703104
(dp269
sI755733097
(dp270
g9
I1
sg10
F0
ssI376077163
(dp271
sI197507697
(dp272
sI906585619983454208
(dp273
g9
I1
sg10
F0
ssI81801844
(dp274
sI1228243574
(dp275
g9
I1
sg10
F0
ssI108628599
(dp276
g9
I1
sg10
F0
ssI53338746
(dp277
sI255982015
(dp278
sI51879018
(dp279
sI799714384096280580
(dp280
g9
I1
sg10
F0
ssI779956501754605568
(dp281
sI191656579
(dp282
sI130957956
(dp283
sI548625029
(dp284
g9
I2
sg10
F0
ssI899192137845264384
(dp285
g9
I1
sg10
F0
ssI2908510858
(dp286
sI2806112911
(dp287
sI410282644
(dp288
g9
I1
sg10
F0
ssI20109973
(dp289
g9
I1
sg10
F0
ssI58503830
(dp290
g9
I1
sg10
F0
ssI37413528
(dp291
g9
I1
sg10
F0
ssI1962661579
(dp292
g9
I1
sg10
F0
ssI196168350
(dp293
g9
I1
sg10
F0
ssI712602271
(dp294
sI1453960987
(dp295
sI808694770835083265
(dp296
sI906589376746008576
(dp297
g9
I1
sg10
F0
ssI753136193190109184
(dp298
g9
I1
sg10
F0
ssI2888956584
(dp299
g9
I1
sg10
F0
ssI210428700
(dp300
sI866340866738323456
(dp301
g9
I1
sg10
F0
ssI1636590253
(dp302
sI873917041048256512
(dp303
sI262439605
(dp304
g9
I1
sg10
F0
ssI858794683
(dp305
sI1694939840
(dp306
sI243563201
(dp307
sI828028274047668226
(dp308
sI3150179013
(dp309
g9
I1
sg10
F0
ssI3437747915
(dp310
sI248699593
(dp311
g9
I1
sg10
F0
ssI747807250819981312
(dp312
sI7008972
(dp313
g9
I1
sg10
F0
ssI101331661
(dp314
sI863291154556624896
(dp315
g9
I2
sg10
F0
ssI45363552
(dp316
sI88621782
(dp317
g9
I1
sg10
F0
ssI2794535639
(dp318
sI41634520
(dp319
g9
I1
sg10
F0
ssI80366372
(dp320
g9
I1
sg10
F0
ssI906590875853058048
(dp321
g9
I1
sg10
F0
ssI718519004
(dp322
g9
I1
sg10
F0
ssI52264741
(dp323
sI2903979971
(dp324
sI4704895717
(dp325
sI349022952
(dp326
g9
I1
sg10
F0
ssI17226473
(dp327
g9
I1
sg10
F0
ssI2403937010
(dp328
sI2917670014
(dp329
sI374258422
(dp330
g9
I1
sg10
F0
ssI43680503
(dp331
g9
I1
sg10
F0
ssI260842234
(dp332
g9
I1
sg10
F0
ssI197638271
(dp333
g9
I1
sg10
F0
ssI859659008
(dp334
g9
I1
sg10
F0
ssI883592400752566272
(dp335
g9
I1
sg10
F0
ssI906590850985058304
(dp336
g9
I1
sg10
F0
ssI233149192
(dp337
sI271475466
(dp338
sI106837463
(dp339
g9
I1
sg10
F0
ssI1436549250
(dp340
sI146522898
(dp341
g9
I1
sg10
F0
ssI113130259
(dp342
sI868637460
(dp343
g9
I1
sg10
F0
ssI1878473497
(dp344
g9
I1
sg10
F0
ssI865334042
(dp345
sI4830585628
(dp346
g9
I1
sg10
F0
ssI705780698788073472
(dp347
sI100827937
(dp348
sI35001979
(dp349
sI859543363606896641
(dp350
g9
I1
sg10
F0
ssI607651974
(dp351
sI87823144
(dp352
g9
I40
sg10
F0.0020244964065188787
ssI861745475908775936
(dp353
sI359572266
(dp354
g9
I1
sg10
F0
ssI863044429615169536
(dp355
sI49535791
(dp356
sI2382904118
(dp357
g9
I1
sg10
F0
ssI35430180
(dp358
sI1926683448
(dp359
g9
I40
sg10
F0.0020093126834699868
ssI2331859771
(dp360
sI118663997
(dp361
g9
I1
sg10
F0
ssI2542375742
(dp362
sI135439167
(dp363
g9
I1
sg10
F0
ssI165204800
(dp364
g9
I1
sg10
F0
ssI29471554
(dp365
g9
I1
sg10
F0
ssI16264003
(dp366
g9
I1
sg10
F0
ssI3013145413
(dp367
sI20880206
(dp368
sI228621136
(dp369
g9
I1
sg10
F0
ssI13212502
(dp370
sI1969984345
(dp371
g9
I1
sg10
F0
ssI16206682
(dp372
g9
I1
sg10
F0
ssI751721055031586816
(dp373
g9
I1
sg10
F0
ssI147409758
(dp374
sI906588962977931264
(dp375
g9
I1
sg10
F0
ssI273269602
(dp376
sI50393960
(dp377
sI244376426
(dp378
g9
I1
sg10
F0
ssI49740651
(dp379
g9
I1
sg10
F0
ssI2204463980
(dp380
g9
I2
sg10
F0
ssI197687975
(dp381
sI890281627540213760
(dp382
g9
I1
sg10
F0
ssI197498685
(dp383
sI3312810864
(dp384
g9
I1
sg10
F0
ssI30684018
(dp385
g9
I1
sg10
F0
ssI2277106547
(dp386
sI831210356
(dp387
g9
I1
sg10
F0
ssI3380173685
(dp388
g9
I1
sg10
F0
ssI852772124
(dp389
sI2269066730
(dp390
sI479826814
(dp391
sI889211931202117632
(dp392
sI906590224695914496
(dp393
g9
I1
sg10
F0
ssI47455112
(dp394
g9
I1
sg10
F0
ssI1092006794
(dp395
g9
I1
sg10
F0
ssI119016332
(dp396
sI628237198
(dp397
sI906590617119080448
(dp398
g9
I1
sg10
F0
ssI3146359696
(dp399
sI47813521
(dp400
g9
I38
sg10
F0.0018220467658669906
ssI2293549970
(dp401
sI128052116
(dp402
g9
I1
sg10
F0
ssI80077721
(dp403
sI60865434
(dp404
sI2164583325
(dp405
g9
I1
sg10
F0
ssI1522620229
(dp406
sI3087727522
(dp407
g9
I1
sg10
F0
ssI822215673812119553
(dp408
g9
I2
sg10
F0
ssI329519267
(dp409
sI48878503
(dp410
g9
I1
sg10
F0
ssI47034524
(dp411
g9
I1
sg10
F0
ssI1548475308
(dp412
sI1626421878
(dp413
sI1333509038
(dp414
g9
I1
sg10
F0
ssI117605296
(dp415
g9
I1
sg10
F0
ssI57582514
(dp416
g9
I1
sg10
F0
ssI4447527859
(dp417
sI2580110263
(dp418
g9
I1
sg10
F0
ssI119360445
(dp419
g9
I1
sg10
F0
ssI906587332031246338
(dp420
g9
I1
sg10
F0
ssI788983419199852544
(dp421
g9
I1
sg10
F0
ssI245963716
(dp422
g9
I1
sg10
F0
ssI35171273
(dp423
sI606667727
(dp424
g9
I1
sg10
F0
ssI34743251
(dp425
sI3270699990
(dp426
g9
I1
sg10
F0
ssI19319767
(dp427
g9
I1
sg10
F0
ssI46123992
(dp428
g9
I1
sg10
F0
ssI48071844
(dp429
sI380814299
(dp430
sI18549724
(dp431
g9
I1
sg10
F0
ssI567989213
(dp432
g9
I1
sg10
F0
ssI402957663
(dp433
g9
I1
sg10
F0
ssI1873312735
(dp434
g9
I1
sg10
F0
ssI33502178
(dp435
sI2543408102
(dp436
g9
I2
sg10
F0
ssI3562471
(dp437
g9
I1
sg10
F0
ssI18691048
(dp438
g9
I1
sg10
F0
ssI42738666
(dp439
g9
I1
sg10
F0
ssI399358955
(dp440
sI149180925
(dp441
sI230691836
(dp442
sI4708866923
(dp443
g9
I1
sg10
F0
ssI23346175
(dp444
sI16303106
(dp445
g9
I1
sg10
F0
ssI187119787
(dp446
sI287482885
(dp447
sI906584587815583744
(dp448
g9
I1
sg10
F0
ssI595473415
(dp449
g9
I1
sg10
F0
ssI115364872
(dp450
sI16442379
(dp451
sI396645388
(dp452
g9
I1
sg10
F0
ssI40815629
(dp453
g9
I17
sg10
F0.00085534973175422615
ssI803685165851615232
(dp454
sI17001490
(dp455
g9
I1
sg10
F0
ssI149099539
(dp456
sI906587274858692608
(dp457
g9
I1
sg10
F0
ssI879451342372302848
(dp458
sI2880685079
(dp459
g9
I1
sg10
F0
ssI31040536
(dp460
sI259904541
(dp461
sI57396255
(dp462
g9
I1
sg10
F0
ssI906587334501695489
(dp463
g9
I1
sg10
F0
ssI2511471793
(dp464
sI21601320
(dp465
sI127512071
(dp466
sI267512876
(dp467
sI742042196803739649
(dp468
sI755436549416902656
(dp469
sI1022382600
(dp470
g9
I1
sg10
F0
ssI3308659762
(dp471
g9
I1
sg10
F0
ssI266734646
(dp472
g9
I1
sg10
F0
ssI705466812717096960
(dp473
g9
I1
sg10
F0
ssI904261825864269825
(dp474
sI900122114388357126
(dp475
g9
I1
sg10
F0
ssI302593083
(dp476
sI906590897546166274
(dp477
g9
I1
sg10
F0
ssI411405379
(dp478
sI1832479814
(dp479
sI197592135
(dp480
g9
I1
sg10
F0
ssI14857290
(dp481
sI91942071
(dp482
sI36387920
(dp483
sI1371618385
(dp484
sI806798260094451712
(dp485
sI792783670033743876
(dp486
sI104016988
(dp487
sI280896606
(dp488
sI261090400
(dp489
g9
I1
sg10
F0
ssI78525538
(dp490
g9
I1
sg10
F0
ssI2186755171
(dp491
sI704505328956784641
(dp492
sI855488685931999232
(dp493
g9
I1
sg10
F0
ssI103622347
(dp494
sI799294889540354048
(dp495
g9
I1
sg10
F0
ssI37610602
(dp496
sI234941142
(dp497
sI33989747
(dp498
g9
I1
sg10
F0
ssI906590770685108224
(dp499
g9
I1
sg10
F0
ssI593810556
(dp500
sI14306430
(dp501
g9
I2
sg10
F0
ssI15099007
(dp502
g9
I1
sg10
F0
ssI181542016
(dp503
g9
I1
sg10
F0
ssI849039681996165120
(dp504
g9
I1
sg10
F0
ssI906590820656173056
(dp505
g9
I1
sg10
F0
ssI906590566762385408
(dp506
g9
I1
sg10
F0
ssI701069613627535362
(dp507
sI24329353
(dp508
g9
I1
sg10
F0
ssI23567501
(dp509
sI18220175
(dp510
g9
I1
sg10
F0
ssI18912401
(dp511
g9
I1
sg10
F0
ssI906590929724825600
(dp512
g9
I1
sg10
F0
ssI93293716
(dp513
sI4707812505
(dp514
sI33041569
(dp515
sI906586621042200577
(dp516
g9
I1
sg10
F0
ssI880580574569570304
(dp517
sI14873767
(dp518
g9
I1
sg10
F0
ssI197600424
(dp519
g9
I1
sg10
F0
ssI906590755371626496
(dp520
g9
I1
sg10
F0
ssI16020654
(dp521
g9
I1
sg10
F0
ssI2247355933
(dp522
g9
I1
sg10
F0
ssI352672945
(dp523
g9
I1
sg10
F0
ssI34184372
(dp524
g9
I1
sg10
F0
ssI777341781360926720
(dp525
g9
I1
sg10
F0
ssI24716475
(dp526
g9
I1
sg10
F0
ssI1916120257
(dp527
g9
I7
sg10
F0.0034213989270169046
ssI903019254102069250
(dp528
g9
I1
sg10
F0
ssI69681697
(dp529
sI902869357298057216
(dp530
sI2252422987
(dp531
sI48041163
(dp532
g9
I1
sg10
F0
ssI179850444
(dp533
sI108698830
(dp534
sI15160529
(dp535
g9
I1
sg10
F0
ssI10142932
(dp536
g9
I1
sg10
F0
ssI7587032
(dp537
sI842423007834443777
(dp538
sI48360631
(dp539
sI1849075543
(dp540
sI3409521898
(dp541
sI713048630173638656
(dp542
g9
I1
sg10
F0
ssI46476526
(dp543
g9
I1
sg10
F0
ssI2927031541
(dp544
g9
I1
sg10
F0
ssI19227177
(dp545
g9
I1
sg10
F0
ssI136499071
(dp546
g9
I1
sg10
F0
ssI197586172
(dp547
g9
I1
sg10
F0
ssI383031509
(dp548
g9
I1
sg10
F0
ssI706643098864988160
(dp549
sI134194433
(dp550
g9
I1
sg10
F0
ssI197731588
(dp551
sI16631045
(dp552
sI839351135131443200
(dp553
g9
I1
sg10
F0
ssI701725963
(dp554
sI900119151372492801
(dp555
g9
I2
sg10
F0
ssI277383725
(dp556
sI3449148695
(dp557
g9
I1
sg10
F0
ssI875313173083164673
(dp558
sI2990264100
(dp559
g9
I1
sg10
F0
ssI50769180
(dp560
g9
I1
sg10
F0
ssI800494468310761472
(dp561
g9
I1
sg10
F0
ssI906585765651652609
(dp562
g9
I1
sg10
F0
ssI16714630
(dp563
g9
I1
sg10
F0
ssI855756072
(dp564
sI19397942
(dp565
sI18378044
(dp566
g9
I1
sg10
F0
ssI247459133
(dp567
sI906577131869806594
(dp568
g9
I1
sg10
F0
ssI548687171
(dp569
sI21558596
(dp570
sI37764422
(dp571
g9
I1
sg10
F0
ssI872253703188774912
(dp572
sI48055626
(dp573
sI8453452
(dp574
g9
I1
sg10
F0
ssI118818125
(dp575
g9
I1
sg10
F0
ssI147961168
(dp576
g9
I1
sg10
F0
ssI856646196378710017
(dp577
sI19586276
(dp578
sI805433385623568385
(dp579
sI906590918307807232
(dp580
g9
I1
sg10
F0
ssI70544738
(dp581
g9
I1
sg10
F0
ssI20150502
(dp582
sI3152186729
(dp583
sI172774762
(dp584
sI22203756
(dp585
g9
I1
sg10
F0
ssI252104045
(dp586
sI801244331487219712
(dp587
g9
I1
sg10
F0
ssI810685395377725440
(dp588
sI228535666
(dp589
sI19834228
(dp590
g9
I1
sg10
F0
ssI287624578
(dp591
sI800094690666131456
(dp592
g9
I1
sg10
F0
ssI270839361
(dp593
sI57335176
(dp594
sI22986121
(dp595
g9
I1
sg10
F0
ssI890526296794685441
(dp596
g9
I1
sg10
F0
ssI2238324110
(dp597
g9
I40
sg10
F0.0020244964065188787
ssI892152461082984449
(dp598
g9
I1
sg10
F0
ssI809743447246733312
(dp599
g9
I1
sg10
F0
ssI2168866206
(dp600
sI904929019136704512
(dp601
g9
I1
sg10
F0
ssI14366112
(dp602
g9
I2
sg10
F0
ssI860070224820875265
(dp603
g9
I1
sg10
F0
ssI90348965
(dp604
sI197567914
(dp605
g9
I1
sg10
F0
ssI23158189
(dp606
g9
I1
sg10
F0
ssI335287726
(dp607
sI471672239
(dp608
g9
I1
sg10
F0
ssI2881274440
(dp609
g9
I1
sg10
F0
ssI292146610
(dp610
g9
I1
sg10
F0
ssI885743171845488641
(dp611
sI75541946
(dp612
g9
I1
sg10
F0
ssI79386044
(dp613
sI30313925
(dp614
g9
I1
sg10
F0
ssI1345646022
(dp615
sI93406669
(dp616
g9
I1
sg10
F0
ssI8771022
(dp617
g9
I1
sg10
F0
ssI630169165
(dp618
sI1965255073
(dp619
sI3296742865
(dp620
g9
I1
sg10
F0
ssI554468819
(dp621
g9
I1
sg10
F0
ssI900436451216830465
(dp622
g9
I1
sg10
F0
ssI27966935
(dp623
g9
I1
sg10
F0
ssI1029295578
(dp624
sI19113435
(dp625
sI805538910394785793
(dp626
sI828051573725134848
(dp627
g9
I1
sg10
F0
ssI505083
(dp628
sI231673318
(dp629
g9
I1
sg10
F0
ssI18906599
(dp630
sI759871070136598528
(dp631
sI4804296170
(dp632
g9
I1
sg10
F0
ssI223671790
(dp633
sI15416816
(dp634
g9
I1
sg10
F0
ssI5099091
(dp635
sI1339835893
(dp636
g9
I1
sg10
F0
ssI2763795958
(dp637
sI276514295
(dp638
sI615927039
(dp639
g9
I1
sg10
F0
ssI4022842876
(dp640
sI2159138301
(dp641
g9
I1
sg10
F0
ssI179043039
(dp642
sI16340480
(dp643
g9
I1
sg10
F0
ssI906289871764963328
(dp644
g9
I1
sg10
F0
ssI292083207
(dp645
g9
I1
sg10
F0
ssI171968009
(dp646
g9
I1
sg10
F0
ssI14941706
(dp647
sI3643403789
(dp648
g9
I2
sg10
F0
ssI197731854
(dp649
sI19373583
(dp650
sI20490840
(dp651
sI90727790
(dp652
sI809920015298424832
(dp653
g9
I1
sg10
F0
ssI357606935
(dp654
g9
I40
sg10
F0.0020244964065188787
ssI63262233
(dp655
sI22703645
(dp656
g9
I1
sg10
F0
ssI627463714
(dp657
sI724924108400672769
(dp658
sI219582726
(dp659
sI124002304
(dp660
g9
I1
sg10
F0
ssI3131448873
(dp661
sI4366246647
(dp662
sI900073700178919425
(dp663
sI898760444533288960
(dp664
sI906589963206184961
(dp665
g9
I1
sg10
F0
ssI740597986846203904
(dp666
sI197336641
(dp667
g9
I1
sg10
F0
ssI18105922
(dp668
g9
I1
sg10
F0
ssI18341444
(dp669
g9
I1
sg10
F0
ssI77686342
(dp670
g9
I1
sg10
F0
ssI833376066966167552
(dp671
g9
I1
sg10
F0
ssI780186726228750336
(dp672
sI14067639
(dp673
sI17006157
(dp674
sI545361165
(dp675
sI231442000
(dp676
sI2325495378
(dp677
g9
I1
sg10
F0
ssI858940238273683456
(dp678
g9
I1
sg10
F0
ssI31448660
(dp679
sI864928799603011591
(dp680
g9
I1
sg10
F0
ssI712240414166634496
(dp681
sI4171431515
(dp682
sI418991709
(dp683
sI4003911263
(dp684
sI942655830
(dp685
g9
I1
sg10
F0
ssI31080039
(dp686
sI72568426
(dp687
sI416647783
(dp688
sI196032110
(dp689
sI77216701
(dp690
sI829789919744761856
(dp691
sI705324658
(dp692
g9
I1
sg10
F0
ssI2153016948
(dp693
sI261371509
(dp694
g9
I1
sg10
F0
ssI99868278
(dp695
sI2176745083
(dp696
g9
I40
sg10
F0.0019688227553396093
ssI1400555132
(dp697
sI519753341
(dp698
g9
I1
sg10
F0
ssI197676671
(dp699
g9
I1
sg10
F0
ssI3245667971
(dp700
sI906587112325238784
(dp701
g9
I1
sg10
F0
ssI906578165648171008
(dp702
g9
I1
sg10
F0
ssI446620951
(dp703
g9
I1
sg10
F0
ssI249829698
(dp704
sI256793538
(dp705
g9
I1
sg10
F0
ssI1955597970
(dp706
g9
I1
sg10
F0
ssI2884538307
(dp707
sI4824813166
(dp708
sI822844948433301504
(dp709
sI64003736
(dp710
g9
I1
sg10
F0
ssI69675599
(dp711
sI20659868
(dp712
g9
I1
sg10
F0
ssI865721143369506816
(dp713
g9
I2
sg10
F0
ssI197717666
(dp714
sI906482187284959233
(dp715
g9
I1
sg10
F0
ssI299734693
(dp716
sI1729822376
(dp717
sI633992873
(dp718
g9
I1
sg10
F0
ssI1660862130
(dp719
g9
I2
sg10
F0
ssI2208812724
(dp720
sI3078420766
(dp721
sI257796800
(dp722
sI2383492793
(dp723
sI801959011247484928
(dp724
sI197752508
(dp725
g9
I1
sg10
F0
ssI117269671
(dp726
sI866392710411948032
(dp727
sI886318841260802049
(dp728
sI906590945742868482
(dp729
g9
I1
sg10
F0
ssI3120443075
(dp730
g9
I1
sg10
F0
ssI16378486
(dp731
g9
I1
sg10
F0
ssI840943865133703168
(dp732
sI24024778
(dp733
sI826217983290769410
(dp734
g9
I1
sg10
F0
ssI698153378757660672
(dp735
sI894352469744001024
(dp736
g9
I1
sg10
F0
ssI1472026321
(dp737
sI211037906
(dp738
g9
I1
sg10
F0
ssI34209496
(dp739
sI213698852
(dp740
sI743071503642566657
(dp741
sI2388207329
(dp742
sI39835363
(dp743
g9
I1
sg10
F0
ssI974802661
(dp744
sI124229352
(dp745
sI872075482384224257
(dp746
g9
I2
sg10
F0
ssI161715155
(dp747
sI52009598
(dp748
sI2305384189
(dp749
g9
I1
sg10
F0
ssI906588826885173248
(dp750
g9
I1
sg10
F0
ssI856473488659537920
(dp751
g9
I1
sg10
F0
ssI185374468
(dp752
g9
I1
sg10
F0
ssI906590907608195072
(dp753
g9
I1
sg10
F0
ssI882645123196231680
(dp754
g9
I1
sg10
F0
ssI202258185
(dp755
sI4910329610
(dp756
sI151295755
(dp757
sI173699375
(dp758
sI20963090
(dp759
sI2894114580
(dp760
sI813750042
(dp761
sI93673775
(dp762
g9
I1
sg10
F0
ssI57779998
(dp763
g9
I1
sg10
F0
ssI64997151
(dp764
g9
I1
sg10
F0
ssI3274699908
(dp765
g9
I1
sg10
F0
ssI906588853120720897
(dp766
g9
I1
sg10
F0
ssI1932851846
(dp767
g9
I1
sg10
F0
ssI56561449
(dp768
g9
I1
sg10
F0
ssI197812010
(dp769
g9
I1
sg10
F0
ssI906588368108224512
(dp770
g9
I1
sg10
F0
ssI431413036
(dp771
sI860137000686338048
(dp772
g9
I1
sg10
F0
ssI3734732592
(dp773
sI4905251806
(dp774
g9
I1
sg10
F0
ssI773397580051017728
(dp775
g9
I1
sg10
F0
ssI279827082
(dp776
sI2191169342
(dp777
g9
I1
sg10
F0
ssI3082022719
(dp778
sI3441047360
(dp779
sI190404578
(dp780
sI20479813
(dp781
g9
I1
sg10
F0
ssI299558731
(dp782
g9
I2
sg10
F0
ssI24594252
(dp783
sI1300301
(dp784
sI419918470
(dp785
sI115414863
(dp786
sI9207632
(dp787
sI702739245195096065
(dp788
sI3417556319
(dp789
g9
I2
sg10
F0
ssI2872661847
(dp790
sI2242922330
(dp791
sI191889245
(dp792
g9
I1
sg10
F0
ssI50476895
(dp793
g9
I1
sg10
F0
ssI4121225056
(dp794
g9
I1
sg10
F0
ssI2247018338
(dp795
sI839177690544488449
(dp796
sI197680102
(dp797
sI50329448
(dp798
g9
I1
sg10
F0
ssI322293052
(dp799
g9
I1
sg10
F0
ssI757667003092140032
(dp800
sI280860526
(dp801
sI122339183
(dp802
g9
I2
sg10
F0
ssI48927836
(dp803
sI180733809
(dp804
sI121204594
(dp805
g9
I1
sg10
F0
ssI33648499
(dp806
g9
I1
sg10
F0
ssI128724853
(dp807
g9
I1
sg10
F0
ssI1890938744
(dp808
g9
I1
sg10
F0
ssI906591142527070208
(dp809
g9
I1
sg10
F0
ssI275476458
(dp810
sI906590318207881218
(dp811
g9
I1
sg10
F0
ssI858513720925978624
(dp812
sI729676086632656900
(dp813
g9
I1
sg10
F0
ssI21655428
(dp814
g9
I1
sg10
F0
ssI118896517
(dp815
g9
I1
sg10
F0
ssI906590421572186112
(dp816
g9
I1
sg10
F0
ssI58105735
(dp817
g9
I1
sg10
F0
ssI61636488
(dp818
g9
I1
sg10
F0
ssI171020169
(dp819
g9
I1
sg10
F0
ssI21431618
(dp820
g9
I1
sg10
F0
ssI211269614
(dp821
sI884677621547757568
(dp822
sI66467735
(dp823
sI1587890072
(dp824
g9
I1
sg10
F0
ssI2567908676
(dp825
sI891796727791005697
(dp826
g9
I1
sg10
F0
ssI721519833561477120
(dp827
sI705488139091972096
(dp828
sI906586306834132993
(dp829
g9
I1
sg10
F0
ssI47032231
(dp830
sI901767932304392192
(dp831
g9
I1
sg10
F0
ssI830813993824636928
(dp832
g9
I2
sg10
F0
ssI94195631
(dp833
g9
I1
sg10
F0
ssI2590257072
(dp834
sI236631986
(dp835
g9
I1
sg10
F0
ssI112621492
(dp836
sI216776631
(dp837
sI2174463928
(dp838
sI878604381050032129
(dp839
sI906587359768203266
(dp840
g9
I1
sg10
F0
ssI587191730
(dp841
sI18442178
(dp842
g9
I1
sg10
F0
ssI735275750505340928
(dp843
sI606211203
(dp844
sI897368871669084160
(dp845
g9
I1
sg10
F0
ssI17891273
(dp846
g9
I1
sg10
F0
ssI2717044682
(dp847
sI613398477
(dp848
sI322953166
(dp849
sI21878736
(dp850
g9
I1
sg10
F0
ssI157638614
(dp851
sI286261212
(dp852
sI91285471
(dp853
g9
I1
sg10
F0
ssI55570400
(dp854
sI21954529
(dp855
g9
I1
sg10
F0
ssI2457429986
(dp856
g9
I1
sg10
F0
ssI800707492346925056
(dp857
sI49879012
(dp858
sI444470743
(dp859
sI16113639
(dp860
g9
I1
sg10
F0
ssI26322920
(dp861
g9
I1
sg10
F0
ssI99362794
(dp862
g9
I1
sg10
F0
ssI17171111
(dp863
g9
I1
sg10
F0
ssI905742450274082816
(dp864
sI906124632155181056
(dp865
g9
I1
sg10
F0
ssI846137120209190912
(dp866
sI64397992
(dp867
g9
I1
sg10
F0
ssI5402612
(dp868
sI791306523062497280
(dp869
sI1087440553
(dp870
g9
I2
sg10
F0
sssS'node_dict_factory'
p871
c__builtin__
dict
p872
sS'edge_attr_dict_factory'
p873
g872
sS'succ'
p874
(dp875
I885393827103727616
(dp876
I902869357298057216
(dp877
sI866392710411948032
(dp878
sI429857924
(dp879
sI705780698788073472
(dp880
sI2719944836
(dp881
sI889211931202117632
(dp882
sI900073700178919425
(dp883
sI861745475908775936
(dp884
sI891081498790703104
(dp885
sI3457675883
(dp886
sI905180324937785345
(dp887
sI2806112911
(dp888
sI1965255073
(dp889
sI705488139091972096
(dp890
sI2181560068
(dp891
sI743071503642566657
(dp892
sI1400555132
(dp893
sI4022842876
(dp894
sI3078420766
(dp895
sI4003911263
(dp896
ssI842714107178450944
(dp897
sI906590439578460162
(dp898
sI900031402845978627
(dp899
cnumpy.core.multiarray
scalar
p900
(cnumpy
dtype
p901
(S'i8'
I0
I1
tRp902
(I3
S'<'
NNNI-1
I-1
I0
tbS'{~\xbe\x81\x00\x00\x00\x00'
tRp903
(dp904
ssI885697397564866564
(dp905
sI906587332157026309
(dp906
sI796902352963764224
(dp907
sI906586171278585857
(dp908
sI2675288072
(dp909
sI266420236
(dp910
sI901941258318479362
(dp911
sI906589926510260225
(dp912
sI20733972
(dp913
g900
(g902
S'\xd5\x98~\x01\x00\x00\x00\x00'
tRp914
(dp915
ssI906590003328937984
(dp916
sI14075928
(dp917
g900
(g902
S'\x00`U\xab\x80\xdb\x94\x0c'
tRp918
(dp919
ssI2990729241
(dp920
g900
(g902
S'\xdc1=\x06\x00\x00\x00\x00'
tRp921
(dp922
ssI106762266
(dp923
g900
(g902
S"\xa1\xe1'\x86\x00\x00\x00\x00"
tRp924
(dp925
ssI191450458
(dp926
sI817873519954587653
(dp927
sI976900128
(dp928
g900
(g902
S'\x00\x90\x970Q\xdb\x94\x0c'
tRp929
(dp930
ssI3457675883
(dp931
sI823367015830323201
(dp932
g914
(dp933
ssI906589922886373382
(dp934
sI108648487
(dp935
g900
(g902
S'\x1c\xc1\xc6\x0b\x00\x00\x00\x00'
tRp936
(dp937
ssI14850088
(dp938
sI906589970009346055
(dp939
sI365939318
(dp940
g900
(g902
S'\x01@Wd\xcc\xad\xa1\x0b'
tRp941
(dp942
ssI906583132551487490
(dp943
sI214409268
(dp944
g900
(g902
S'\x00`\xd7\xa6\xfe\x8cI\x0c'
tRp945
(dp946
ssI117743669
(dp947
g900
(g902
S'\x17\xa6P\x15\x00\x00\x00\x00'
tRp948
(dp949
ssI197545311
(dp950
g936
(dp951
ssI10729532
(dp952
g900
(g902
S'\r\xccn\x02\x00\x00\x00\x00'
tRp953
(dp954
ssI197810238
(dp955
g900
(g902
S'\x1e\x11\xc8\x0b\x00\x00\x00\x00'
tRp956
(dp957
ssI61440064
(dp958
g941
(dp959
ssI3283517792
(dp960
sI970207298
(dp961
g948
(dp962
ssI384951307
(dp963
g900
(g902
S'\x02\x00\x16\xd9\xe0Pw\x0b'
tRp964
(dp965
ssI2212489284
(dp966
sI443215941
(dp967
g900
(g902
S'bm4\x04\x00\x00\x00\x00'
tRp968
(dp969
ssI765515105576550400
(dp970
g900
(g902
S'\x00\x80\x97\x7f\xda\xd3\x94\x0c'
tRp971
(dp972
ssI738894256593502208
(dp973
sI48304141
(dp974
sI29995782
(dp975
g941
(dp976
ssI1691574356
(dp977
g900
(g902
S'\x01pW\xc9Q\xd7\x94\x0c'
tRp978
(dp979
ssI4827631701
(dp980
g941
(dp981
ssI731342744157741056
(dp982
sI2214869083
(dp983
g971
(dp984
ssI49049693
(dp985
g900
(g902
S'(\x13<\x05\x00\x00\x00\x00'
tRp986
(dp987
ssI433741920
(dp988
sI429857924
(dp989
g945
(dp990
ssI1485733987
(dp991
g900
(g902
S'\x00\xa0\xd7&\x10\xc9?\x0c'
tRp992
(dp993
ssI1221025892
(dp994
g900
(g902
S'B)\xc6\x02\x00\x00\x00\x00'
tRp995
(dp996
ssI784401549778911232
(dp997
sI2772648048
(dp998
sI98314354
(dp999
sI5625972
(dp1000
g900
(g902
S'\x8e\x1dj\x85\x00\x00\x00\x00'
tRp1001
(dp1002
ssI4916410486
(dp1003
sI2750877815
(dp1004
g900
(g902
S'\tA\xc1\x01\x00\x00\x00\x00'
tRp1005
(dp1006
ssI1243555962
(dp1007
sI223166587
(dp1008
g948
(dp1009
ssI48906364
(dp1010
g900
(g902
S'\x91\x93\xd9\x02\x00\x00\x00\x00'
tRp1011
(dp1012
ssI887063489625325572
(dp1013
g964
(dp1014
ssI14669951
(dp1015
g914
(dp1016
ssI3064789121
(dp1017
g971
(dp1018
ssI497250434
(dp1019
g968
(dp1020
ssI3486152835
(dp1021
g995
(dp1022
ssI2719944836
(dp1023
sI235261974
(dp1024
g900
(g902
S'=\xab\x12\x07\x00\x00\x00\x00'
tRp1025
(dp1026
ssI906590151605751808
(dp1027
sI5392522
(dp1028
g968
(dp1029
ssI20316308
(dp1030
sI3267350677
(dp1031
sI50294938
(dp1032
g1001
(dp1033
ssI28113052
(dp1034
g1005
(dp1035
ssI1532061
(dp1036
g953
(dp1037
ssI342599843
(dp1038
g929
(dp1039
ssI816298918468259841
(dp1040
g1005
(dp1041
ssI4025225381
(dp1042
sI812376663560519680
(dp1043
sI80361644
(dp1044
g1005
(dp1045
ssI143024790
(dp1046
sI394465457
(dp1047
g900
(g902
S'X9H\x03\x00\x00\x00\x00'
tRp1048
(dp1049
ssI16548023
(dp1050
g918
(dp1051
ssI813749727170793473
(dp1052
g971
(dp1053
ssI887878687
(dp1054
g948
(dp1055
ssI838672863716589568
(dp1056
g971
(dp1057
ssI802392555807735808
(dp1058
g903
(dp1059
ssI19685572
(dp1060
g903
(dp1061
ssI3353579894
(dp1062
sI994511047
(dp1063
g971
(dp1064
ssI790728
(dp1065
g978
(dp1066
sg964
(dp1067
ssI704482666955976704
(dp1068
sI14989516
(dp1069
g921
(dp1070
ssI376967376
(dp1071
sI25073877
(dp1072
I906591142527070208
(dp1073
sI906588826885173248
(dp1074
sI906590945742868482
(dp1075
sI906590566762385408
(dp1076
sI906590655278919681
(dp1077
sI906589922886373382
(dp1078
sI906588962977931264
(dp1079
sI906482187284959233
(dp1080
sI901941258318479362
(dp1081
sI906590755371626496
(dp1082
sI906590687491006464
(dp1083
sI906590439578460162
(dp1084
sI906588016004579328
(dp1085
sI3308659762
(dp1086
sg964
(dp1087
sI58503830
(dp1088
sI906590850985058304
(dp1089
sI906589970009346055
(dp1090
sI906590918307807232
(dp1091
sI906590224695914496
(dp1092
sI906590907608195072
(dp1093
ssI906588395492794368
(dp1094
sI68522205
(dp1095
g1048
(dp1096
ssI240664803
(dp1097
sI813286
(dp1098
g900
(g902
S'\xc1\xac5r\x00\x00\x00\x00'
tRp1099
(dp1100
ssI896980623809818624
(dp1101
sI21332200
(dp1102
g1005
(dp1103
ssI139092348
(dp1104
g929
(dp1105
ssI1345476306
(dp1106
g900
(g902
S'\xea\xbd[\x1e\x01\x00\x00\x00'
tRp1107
(dp1108
ssI855999418411208704
(dp1109
sI381868271
(dp1110
sI22425840
(dp1111
g921
(dp1112
ssI837883810356334593
(dp1113
sI197624060
(dp1114
g936
(dp1115
ssI150317310
(dp1116
sI434829567
(dp1117
g1011
(dp1118
ssI197742170
(dp1119
g956
(dp1120
ssI762396950339747840
(dp1121
sI720293443260456960
(dp1122
g914
(dp1123
ssI417650980
(dp1124
sI96071944
(dp1125
g903
(dp1126
ssI29442313
(dp1127
I863291154556624896
(dp1128
sI906589963206184961
(dp1129
sI18442178
(dp1130
sI906590151605751808
(dp1131
sI906589926510260225
(dp1132
sI906589376746008576
(dp1133
sI906590687491006464
(dp1134
sI906589970009346055
(dp1135
sI124963911
(dp1136
sI906590897546166274
(dp1137
sI906289871764963328
(dp1138
sI906590421572186112
(dp1139
sI906590003328937984
(dp1140
sI906590820656173056
(dp1141
sI906590617119080448
(dp1142
sI2843515318
(dp1143
sI906590929724825600
(dp1144
sI906590875853058048
(dp1145
sI906590770685108224
(dp1146
sI906590318207881218
(dp1147
ssI14206795
(dp1148
sI564173073
(dp1149
g1001
(dp1150
ssI14749971
(dp1151
g1011
(dp1152
ssI197574940
(dp1153
I197517921
(dp1154
sI197752508
(dp1155
sI118896517
(dp1156
sI108648487
(dp1157
sI197600424
(dp1158
sI260842234
(dp1159
sI197567914
(dp1160
sI197592135
(dp1161
sI118818125
(dp1162
sI122339183
(dp1163
sI197726728
(dp1164
sI236631986
(dp1165
sI52120149
(dp1166
sI197336641
(dp1167
sI248699593
(dp1168
sI1243555962
(dp1169
sI197586172
(dp1170
sI118663997
(dp1171
sI197660958
(dp1172
sI197638271
(dp1173
ssI197660958
(dp1174
I721519833561477120
(dp1175
sI329519267
(dp1176
sI197680102
(dp1177
sI607651974
(dp1178
sI197687975
(dp1179
sI202258185
(dp1180
sI117269671
(dp1181
sI431413036
(dp1182
sI628237198
(dp1183
sI381868271
(dp1184
sI189293091
(dp1185
sI197553874
(dp1186
sI374481331
(dp1187
sI335287726
(dp1188
sI277948950
(dp1189
sI143303257
(dp1190
sI82071897
(dp1191
sI813750042
(dp1192
sI191450458
(dp1193
sI418991709
(dp1194
ssI814231264765026305
(dp1195
g971
(dp1196
ssI972558726
(dp1197
g992
(dp1198
ssI9300262
(dp1199
g968
(dp1200
ssI906582360405278720
(dp1201
sI3398633772
(dp1202
sI197634351
(dp1203
g936
(dp1204
ssI26102066
(dp1205
g936
(dp1206
ssI468640052
(dp1207
g945
(dp1208
ssI197570872
(dp1209
g956
(dp1210
ssI11348282
(dp1211
g918
(dp1212
ssI307423967
(dp1213
g929
(dp1214
ssI355367229
(dp1215
sI388677953
(dp1216
sI46541122
(dp1217
I433741920
(dp1218
sI900119151372492801
(dp1219
sI3486152835
(dp1220
sI594874694
(dp1221
sI828051573725134848
(dp1222
sI736763562530471937
(dp1223
sI2881274440
(dp1224
sI171020169
(dp1225
sI882645123196231680
(dp1226
sI1646934600
(dp1227
sI3398633772
(dp1228
sI3643403789
(dp1229
sI1333509038
(dp1230
sI15416816
(dp1231
sI2257558088
(dp1232
sI1022382600
(dp1233
sI2927031541
(dp1234
sI446620951
(dp1235
sI858940238273683456
(dp1236
sI817873519954587653
(dp1237
ssI33667397
(dp1238
sI594874694
(dp1239
sI48996679
(dp1240
sI2257558088
(dp1241
sI906133598553681920
(dp1242
sI2198878544
(dp1243
sI57334102
(dp1244
g1001
(dp1245
ssI55064920
(dp1246
I740597986846203904
(dp1247
sI905742450274082816
(dp1248
sI627463714
(dp1249
sI240664803
(dp1250
sI211648886
(dp1251
sI884677621547757568
(dp1252
sI2697757255
(dp1253
sI2717044682
(dp1254
sI376077163
(dp1255
sI266420236
(dp1256
sI223671790
(dp1257
sI2590257072
(dp1258
sI2277106547
(dp1259
sI20316308
(dp1260
sI822844948433301504
(dp1261
sI14067639
(dp1262
sI20490840
(dp1263
sI780186726228750336
(dp1264
sI104016988
(dp1265
sI91942071
(dp1266
ssI82071897
(dp1267
sI2508941658
(dp1268
g1107
(dp1269
ssI4871584091
(dp1270
sI30358586
(dp1271
sI501270879
(dp1272
g1107
(dp1273
ssI65069408
(dp1274
g986
(dp1275
ssI906583761285996544
(dp1276
sI3146115426
(dp1277
g900
(g902
S'\x00`\xd4\x14TR\xca\t'
tRp1278
(dp1279
ssI104063340
(dp1280
g986
(dp1281
ssI905180324937785345
(dp1282
sI906588868471902208
(dp1283
sI787772328398692352
(dp1284
sI637196658
(dp1285
g1005
(dp1286
ssI211648886
(dp1287
sI107037417
(dp1288
sI267338104
(dp1289
g1025
(dp1290
ssI30663036
(dp1291
sI16249213
(dp1292
g903
(dp1293
ssI2155579778
(dp1294
sI828347623098560512
(dp1295
sI217749896
(dp1296
g900
(g902
S'8\xdb\xd6r\x00\x00\x00\x00'
tRp1297
(dp1298
ssI864470444245757952
(dp1299
sI208232847
(dp1300
g986
(dp1301
ssI92449170
(dp1302
sI479863188
(dp1303
g929
(dp1304
ssI30364057
(dp1305
g918
(dp1306
ssI846380717349240833
(dp1307
sI477667743
(dp1308
g948
(dp1309
ssI1001048480
(dp1310
sI222726561
(dp1311
g936
(dp1312
ssI779613876228730881
(dp1313
g995
(dp1314
ssI890502325474865152
(dp1315
sI124963911
(dp1316
sI1169637804
(dp1317
g964
(dp1318
ssI812462389991854080
(dp1319
sI471287735
(dp1320
g929
(dp1321
ssI2843515318
(dp1322
sI3882117561
(dp1323
sI128148127
(dp1324
g956
(dp1325
ssI197589439
(dp1326
g936
(dp1327
ssI37999041
(dp1328
g968
(dp1329
ssI1306925508
(dp1330
g921
(dp1331
ssI3247776197
(dp1332
sI2250760609
(dp1333
sI716510667243651072
(dp1334
sI416676471
(dp1335
sI85772748
(dp1336
g929
(dp1337
ssI185510351
(dp1338
g956
(dp1339
ssI192862672
(dp1340
g1025
(dp1341
ssI1461170642
(dp1342
sI873261523
(dp1343
g1001
(dp1344
ssI736763562530471937
(dp1345
g995
(dp1346
ssI15933910
(dp1347
g986
(dp1348
ssI4782551
(dp1349
g1297
(dp1350
ssI254337496
(dp1351
g1048
(dp1352
ssI118115748
(dp1353
sI963637723
(dp1354
sI104673756
(dp1355
I906124632155181056
(dp1356
sI801244331487219712
(dp1357
sI3087727522
(dp1358
sI838142099035996161
(dp1359
sI4025225381
(dp1360
sI894352469744001024
(dp1361
sI891796727791005697
(dp1362
sI107037417
(dp1363
sI1322416681
(dp1364
sI244376426
(dp1365
sI800094690666131456
(dp1366
sI70544738
(dp1367
sI18912401
(dp1368
sI899192137845264384
(dp1369
sI165204800
(dp1370
sI22986121
(dp1371
sI55064920
(dp1372
sI4871584091
(dp1373
sI2159138301
(dp1374
sI2457429986
(dp1375
ssI588200416
(dp1376
g929
(dp1377
ssI906590655278919681
(dp1378
sI55181796
(dp1379
g1107
(dp1380
ssI165549137
(dp1381
sI147335250
(dp1382
g1278
(dp1383
ssI755821622641254401
(dp1384
g992
(dp1385
ssI187881969
(dp1386
g945
(dp1387
ssI325890557
(dp1388
sI56769022
(dp1389
g936
(dp1390
ssI893765510285983744
(dp1391
sI549925200
(dp1392
sI359340545
(dp1393
g986
(dp1394
ssI8442372
(dp1395
g1001
(dp1396
ssI44998279
(dp1397
sI906588016004579328
(dp1398
sI197726728
(dp1399
sI9376172
(dp1400
g941
(dp1401
ssI197553874
(dp1402
sI55835157
(dp1403
g971
(dp1404
ssI277948950
(dp1405
sI2181560068
(dp1406
sI1404590618
(dp1407
g1011
(dp1408
sg964
(dp1409
ssI182837791
(dp1410
g936
(dp1411
ssI857543865724809217
(dp1412
sI4833544738
(dp1413
sI189293091
(dp1414
g956
(dp1415
ssI838142099035996161
(dp1416
I1694939840
(dp1417
sI808694770835083265
(dp1418
sI240664803
(dp1419
sI885743171845488641
(dp1420
sI16631045
(dp1421
sI879451342372302848
(dp1422
sI880580574569570304
(dp1423
sI51879018
(dp1424
sI890502325474865152
(dp1425
sI855999418411208704
(dp1426
sI3082022719
(dp1427
sI3340073541
(dp1428
sI810685395377725440
(dp1429
sI191656579
(dp1430
sI886318841260802049
(dp1431
sI3013145413
(dp1432
sI2794535639
(dp1433
sI1924071992
(dp1434
sI1453960987
(dp1435
sI712602271
(dp1436
ssI1689702150
(dp1437
g1107
(dp1438
ssI906590687491006464
(dp1439
sI1322416681
(dp1440
sI19697415
(dp1441
g1099
(dp1442
ssI475802156
(dp1443
g914
(dp1444
ssI44196397
(dp1445
g918
(dp1446
sg992
(dp1447
ssI16399908
(dp1448
g1025
(dp1449
ssI374481331
(dp1450
sI15143478
(dp1451
g918
(dp1452
ssI1924071992
(dp1453
sI554666554
(dp1454
g1107
(dp1455
ssI3297575484
(dp1456
g945
(dp1457
ssI77316669
(dp1458
g986
(dp1459
ssI5815392
(dp1460
sI3340073541
(dp1461
sI38617670
(dp1462
g945
(dp1463
ssI2697757255
(dp1464
sI1646934600
(dp1465
sI4643811147
(dp1466
g903
(dp1467
ssI386263630
(dp1468
g1001
(dp1469
ssI98554447
(dp1470
g948
(dp1471
ssI109998675
(dp1472
g956
(dp1473
ssI52120149
(dp1474
g1099
(dp1475
ssI2768703929
(dp1476
sI1521687128
(dp1477
sI143303257
(dp1478
sI545561179
(dp1479
g945
(dp1480
ssI197517921
(dp1481
sI822376728723070976
(dp1482
sI1908105828
(dp1483
g1011
(dp1484
ssI21918310
(dp1485
g968
(dp1486
ssI891081498790703104
(dp1487
sI755733097
(dp1488
g995
(dp1489
ssI376077163
(dp1490
sI197507697
(dp1491
g956
(dp1492
ssI906585619983454208
(dp1493
sI81801844
(dp1494
sI1228243574
(dp1495
g1001
(dp1496
ssI108628599
(dp1497
g948
(dp1498
ssI53338746
(dp1499
g1048
(dp1500
ssI255982015
(dp1501
sI51879018
(dp1502
sI799714384096280580
(dp1503
g995
(dp1504
ssI779956501754605568
(dp1505
sI191656579
(dp1506
sI130957956
(dp1507
g992
(dp1508
ssI548625029
(dp1509
g903
(dp1510
ssI899192137845264384
(dp1511
sI2908510858
(dp1512
g964
(dp1513
ssI2806112911
(dp1514
sI410282644
(dp1515
g995
(dp1516
ssI20109973
(dp1517
g1011
(dp1518
ssI58503830
(dp1519
sI37413528
(dp1520
g1297
(dp1521
ssI1962661579
(dp1522
g1011
(dp1523
ssI196168350
(dp1524
g914
(dp1525
ssI712602271
(dp1526
sI1453960987
(dp1527
sI808694770835083265
(dp1528
sI906589376746008576
(dp1529
sI753136193190109184
(dp1530
sI2888956584
(dp1531
sI210428700
(dp1532
g956
(dp1533
ssI866340866738323456
(dp1534
sI1636590253
(dp1535
g918
(dp1536
ssI873917041048256512
(dp1537
sI262439605
(dp1538
sI858794683
(dp1539
g945
(dp1540
ssI1694939840
(dp1541
sI243563201
(dp1542
g941
(dp1543
ssI828028274047668226
(dp1544
sI3150179013
(dp1545
sI3437747915
(dp1546
g971
(dp1547
ssI248699593
(dp1548
sI747807250819981312
(dp1549
g964
(dp1550
ssI7008972
(dp1551
g1001
(dp1552
ssI101331661
(dp1553
g992
(dp1554
ssI863291154556624896
(dp1555
sI45363552
(dp1556
g929
(dp1557
ssI88621782
(dp1558
g1001
(dp1559
ssI2794535639
(dp1560
sI41634520
(dp1561
g914
(dp1562
ssI80366372
(dp1563
g1005
(dp1564
ssI906590875853058048
(dp1565
sI718519004
(dp1566
g948
(dp1567
ssI52264741
(dp1568
g1107
(dp1569
ssI2903979971
(dp1570
g941
(dp1571
ssI4704895717
(dp1572
g971
(dp1573
ssI349022952
(dp1574
g986
(dp1575
ssI17226473
(dp1576
sI2403937010
(dp1577
sI2917670014
(dp1578
g992
(dp1579
ssI374258422
(dp1580
sI43680503
(dp1581
g1297
(dp1582
ssI260842234
(dp1583
sI197638271
(dp1584
sI859659008
(dp1585
sI883592400752566272
(dp1586
sI906590850985058304
(dp1587
sI233149192
(dp1588
g1278
(dp1589
ssI271475466
(dp1590
sI106837463
(dp1591
g986
(dp1592
ssI1436549250
(dp1593
g992
(dp1594
ssI146522898
(dp1595
sI113130259
(dp1596
g1048
(dp1597
ssI868637460
(dp1598
g903
(dp1599
ssI1878473497
(dp1600
g1001
(dp1601
ssI865334042
(dp1602
g945
(dp1603
ssI4830585628
(dp1604
g1297
(dp1605
sg971
(dp1606
ssI705780698788073472
(dp1607
sI100827937
(dp1608
g992
(dp1609
ssI35001979
(dp1610
g1048
(dp1611
ssI859543363606896641
(dp1612
g903
(dp1613
ssI607651974
(dp1614
sI87823144
(dp1615
I885393827103727616
(dp1616
sI842714107178450944
(dp1617
sI788983419199852544
(dp1618
sI885697397564866564
(dp1619
sI796902352963764224
(dp1620
sI864470444245757952
(dp1621
sI2888956584
(dp1622
sI17226473
(dp1623
sI48041163
(dp1624
sI211037906
(dp1625
sI860137000686338048
(dp1626
sI21878736
(dp1627
sI46123992
(dp1628
sI777341781360926720
(dp1629
sI2580110263
(dp1630
sI1587890072
(dp1631
sI809920015298424832
(dp1632
sI228621136
(dp1633
sI1873312735
(dp1634
sI762396950339747840
(dp1635
ssI861745475908775936
(dp1636
sI359572266
(dp1637
g1001
(dp1638
ssI863044429615169536
(dp1639
sI49535791
(dp1640
g1048
(dp1641
ssI2382904118
(dp1642
sI35430180
(dp1643
g945
(dp1644
ssI1926683448
(dp1645
I866340866738323456
(dp1646
sI865721143369506816
(dp1647
sI3274699908
(dp1648
sI3270699990
(dp1649
sI822376728723070976
(dp1650
sI1087440553
(dp1651
sI3449148695
(dp1652
sI567989213
(dp1653
sI376967376
(dp1654
sI3296742865
(dp1655
sI3150179013
(dp1656
sI831210356
(dp1657
sI519753341
(dp1658
sI4916410486
(dp1659
sI705466812717096960
(dp1660
sI3882117561
(dp1661
sI3417556319
(dp1662
sI355367229
(dp1663
sI2191169342
(dp1664
sI716510667243651072
(dp1665
ssI2331859771
(dp1666
sI118663997
(dp1667
I273269602
(dp1668
sI417650980
(dp1669
sI234941142
(dp1670
sI416647783
(dp1671
sI14850088
(dp1672
sI79386044
(dp1673
sI172774762
(dp1674
sI18906599
(dp1675
sI287624578
(dp1676
sI115414863
(dp1677
sI165549137
(dp1678
sI98314354
(dp1679
sI271475466
(dp1680
sI143024790
(dp1681
sI416676471
(dp1682
sI31040536
(dp1683
sI49879012
(dp1684
sI963637723
(dp1685
sI286261212
(dp1686
sI77216701
(dp1687
ssI2542375742
(dp1688
g918
(dp1689
ssI135439167
(dp1690
g936
(dp1691
ssI165204800
(dp1692
sI29471554
(dp1693
g1297
(dp1694
ssI16264003
(dp1695
g948
(dp1696
ssI3013145413
(dp1697
sI20880206
(dp1698
g964
(dp1699
ssI228621136
(dp1700
sI13212502
(dp1701
g968
(dp1702
ssI1969984345
(dp1703
g995
(dp1704
ssI16206682
(dp1705
g1005
(dp1706
ssI751721055031586816
(dp1707
g1297
(dp1708
ssI147409758
(dp1709
g1048
(dp1710
ssI906588962977931264
(dp1711
sI273269602
(dp1712
g1025
(dp1713
ssI50393960
(dp1714
g918
(dp1715
ssI244376426
(dp1716
sI49740651
(dp1717
sI2204463980
(dp1718
g903
(dp1719
ssI197687975
(dp1720
sI890281627540213760
(dp1721
g921
(dp1722
ssI197498685
(dp1723
g956
(dp1724
ssI3312810864
(dp1725
g1001
(dp1726
ssI30684018
(dp1727
g995
(dp1728
ssI2277106547
(dp1729
sI831210356
(dp1730
sI3380173685
(dp1731
g1297
(dp1732
ssI852772124
(dp1733
g1107
(dp1734
ssI2269066730
(dp1735
g971
(dp1736
ssI479826814
(dp1737
sI889211931202117632
(dp1738
sI906590224695914496
(dp1739
sI47455112
(dp1740
g1011
(dp1741
ssI1092006794
(dp1742
g1011
(dp1743
ssI119016332
(dp1744
g1025
(dp1745
ssI628237198
(dp1746
sI906590617119080448
(dp1747
sI3146359696
(dp1748
g1107
(dp1749
ssI47813521
(dp1750
I906588368108224512
(dp1751
sI906588395492794368
(dp1752
sI826217983290769410
(dp1753
sI906586621042200577
(dp1754
sI906587332157026309
(dp1755
sI904929019136704512
(dp1756
sI906588853120720897
(dp1757
sI896980623809818624
(dp1758
sI906587359768203266
(dp1759
sI906585619983454208
(dp1760
sI906577131869806594
(dp1761
sI906586171278585857
(dp1762
sI906587332031246338
(dp1763
sI906588868471902208
(dp1764
sI906587334501695489
(dp1765
sI1521687128
(dp1766
sI906582360405278720
(dp1767
sI30663036
(dp1768
sI906133598553681920
(dp1769
sI906587274858692608
(dp1770
ssI2293549970
(dp1771
sI128052116
(dp1772
g936
(dp1773
ssI80077721
(dp1774
g941
(dp1775
ssI60865434
(dp1776
g929
(dp1777
ssI2164583325
(dp1778
g1011
(dp1779
ssI1522620229
(dp1780
sI3087727522
(dp1781
sI822215673812119553
(dp1782
g914
(dp1783
sg948
(dp1784
ssI329519267
(dp1785
sI48878503
(dp1786
g1011
(dp1787
ssI47034524
(dp1788
g1005
(dp1789
ssI1548475308
(dp1790
g1107
(dp1791
ssI1626421878
(dp1792
sI1333509038
(dp1793
sI117605296
(dp1794
g936
(dp1795
ssI57582514
(dp1796
sI4447527859
(dp1797
g1278
(dp1798
ssI2580110263
(dp1799
sI119360445
(dp1800
g1011
(dp1801
ssI906587332031246338
(dp1802
sI788983419199852544
(dp1803
sI245963716
(dp1804
g914
(dp1805
ssI35171273
(dp1806
g1107
(dp1807
ssI606667727
(dp1808
g903
(dp1809
ssI34743251
(dp1810
g918
(dp1811
ssI3270699990
(dp1812
sI19319767
(dp1813
sI46123992
(dp1814
sI48071844
(dp1815
g1048
(dp1816
sg941
(dp1817
sg968
(dp1818
ssI380814299
(dp1819
g941
(dp1820
ssI18549724
(dp1821
g1011
(dp1822
ssI567989213
(dp1823
sI402957663
(dp1824
g1005
(dp1825
ssI1873312735
(dp1826
sI33502178
(dp1827
g929
(dp1828
ssI2543408102
(dp1829
g903
(dp1830
ssI3562471
(dp1831
g986
(dp1832
ssI18691048
(dp1833
g1005
(dp1834
ssI42738666
(dp1835
g921
(dp1836
ssI399358955
(dp1837
g1107
(dp1838
ssI149180925
(dp1839
g968
(dp1840
ssI230691836
(dp1841
g1025
(dp1842
ssI4708866923
(dp1843
g1297
(dp1844
ssI23346175
(dp1845
sI16303106
(dp1846
g1099
(dp1847
ssI187119787
(dp1848
g1025
(dp1849
ssI287482885
(dp1850
g1025
(dp1851
ssI906584587815583744
(dp1852
sI595473415
(dp1853
g1001
(dp1854
ssI115364872
(dp1855
g956
(dp1856
ssI16442379
(dp1857
g968
(dp1858
ssI396645388
(dp1859
g995
(dp1860
ssI40815629
(dp1861
I14366112
(dp1862
sI2250760609
(dp1863
sI2990264100
(dp1864
sI374258422
(dp1865
sI48996679
(dp1866
sI14206795
(dp1867
sI92449170
(dp1868
sI57582514
(dp1869
sI146522898
(dp1870
sI52120149
(dp1871
sI266734646
(dp1872
sI64997151
(dp1873
ssI803685165851615232
(dp1874
sI17001490
(dp1875
g1011
(dp1876
ssI149099539
(dp1877
g1107
(dp1878
ssI906587274858692608
(dp1879
sI879451342372302848
(dp1880
sI2880685079
(dp1881
sI31040536
(dp1882
sI259904541
(dp1883
g1025
(dp1884
ssI57396255
(dp1885
g921
(dp1886
ssI906587334501695489
(dp1887
sI2511471793
(dp1888
g1048
(dp1889
ssI21601320
(dp1890
g918
(dp1891
ssI127512071
(dp1892
g1025
(dp1893
ssI267512876
(dp1894
g941
(dp1895
ssI742042196803739649
(dp1896
g992
(dp1897
ssI755436549416902656
(dp1898
sI1022382600
(dp1899
sI3308659762
(dp1900
sI266734646
(dp1901
sI705466812717096960
(dp1902
I873917041048256512
(dp1903
sI904261825864269825
(dp1904
sI2212489284
(dp1905
sI755436549416902656
(dp1906
sI837883810356334593
(dp1907
sI2675288072
(dp1908
sI3409521898
(dp1909
sI48055626
(dp1910
sI4366246647
(dp1911
sI388677953
(dp1912
sI803685165851615232
(dp1913
sI20963090
(dp1914
sI1001048480
(dp1915
sI2208812724
(dp1916
sI731342744157741056
(dp1917
sI792783670033743876
(dp1918
sI4171431515
(dp1919
sI48927836
(dp1920
sI805538910394785793
(dp1921
sI255982015
(dp1922
ssI904261825864269825
(dp1923
sI900122114388357126
(dp1924
sI302593083
(dp1925
g964
(dp1926
ssI906590897546166274
(dp1927
sI411405379
(dp1928
g941
(dp1929
ssI1832479814
(dp1930
g1107
(dp1931
ssI197592135
(dp1932
sI14857290
(dp1933
g918
(dp1934
ssI91942071
(dp1935
sI36387920
(dp1936
sI1371618385
(dp1937
g978
(dp1938
sg964
(dp1939
ssI806798260094451712
(dp1940
g971
(dp1941
ssI792783670033743876
(dp1942
sI104016988
(dp1943
sI280896606
(dp1944
g945
(dp1945
ssI261090400
(dp1946
g986
(dp1947
ssI78525538
(dp1948
g921
(dp1949
ssI2186755171
(dp1950
sI704505328956784641
(dp1951
g992
(dp1952
ssI855488685931999232
(dp1953
g1297
(dp1954
ssI103622347
(dp1955
g1107
(dp1956
ssI799294889540354048
(dp1957
g1297
(dp1958
ssI37610602
(dp1959
g1048
(dp1960
ssI234941142
(dp1961
sI33989747
(dp1962
g921
(dp1963
ssI906590770685108224
(dp1964
I2186755171
(dp1965
ssI593810556
(dp1966
g929
(dp1967
ssI14306430
(dp1968
g903
(dp1969
ssI15099007
(dp1970
g1005
(dp1971
ssI181542016
(dp1972
g936
(dp1973
ssI849039681996165120
(dp1974
g903
(dp1975
ssI906590820656173056
(dp1976
sI906590566762385408
(dp1977
sI701069613627535362
(dp1978
g1278
(dp1979
ssI24329353
(dp1980
sI23567501
(dp1981
g945
(dp1982
ssI18220175
(dp1983
g986
(dp1984
ssI18912401
(dp1985
sI906590929724825600
(dp1986
sI93293716
(dp1987
g1048
(dp1988
sg941
(dp1989
ssI4707812505
(dp1990
g1278
(dp1991
ssI33041569
(dp1992
g1278
(dp1993
ssI906586621042200577
(dp1994
sI880580574569570304
(dp1995
sI14873767
(dp1996
g921
(dp1997
ssI197600424
(dp1998
sI906590755371626496
(dp1999
sI16020654
(dp2000
g921
(dp2001
ssI2247355933
(dp2002
g903
(dp2003
ssI352672945
(dp2004
g995
(dp2005
ssI34184372
(dp2006
g953
(dp2007
ssI777341781360926720
(dp2008
sI24716475
(dp2009
g1001
(dp2010
ssI1916120257
(dp2011
I46541122
(dp2012
sI52120149
(dp2013
ssI903019254102069250
(dp2014
sI69681697
(dp2015
g1025
(dp2016
ssI902869357298057216
(dp2017
sI2252422987
(dp2018
g968
(dp2019
ssI48041163
(dp2020
sI179850444
(dp2021
g956
(dp2022
ssI108698830
(dp2023
g968
(dp2024
ssI15160529
(dp2025
g1005
(dp2026
ssI10142932
(dp2027
sI7587032
(dp2028
g964
(dp2029
ssI842423007834443777
(dp2030
g941
(dp2031
ssI48360631
(dp2032
g929
(dp2033
ssI1849075543
(dp2034
sI3409521898
(dp2035
sI713048630173638656
(dp2036
g1005
(dp2037
ssI46476526
(dp2038
g1001
(dp2039
ssI2927031541
(dp2040
sI19227177
(dp2041
g921
(dp2042
ssI136499071
(dp2043
sI197586172
(dp2044
sI383031509
(dp2045
g986
(dp2046
ssI706643098864988160
(dp2047
g1278
(dp2048
ssI134194433
(dp2049
g1001
(dp2050
ssI197731588
(dp2051
g956
(dp2052
ssI16631045
(dp2053
sI839351135131443200
(dp2054
sI701725963
(dp2055
g941
(dp2056
ssI900119151372492801
(dp2057
g995
(dp2058
ssI277383725
(dp2059
g1025
(dp2060
ssI3449148695
(dp2061
sI875313173083164673
(dp2062
sI2990264100
(dp2063
sI50769180
(dp2064
g914
(dp2065
ssI800494468310761472
(dp2066
g1297
(dp2067
ssI906585765651652609
(dp2068
sI16714630
(dp2069
g1005
(dp2070
ssI855756072
(dp2071
g945
(dp2072
ssI19397942
(dp2073
g964
(dp2074
ssI18378044
(dp2075
g921
(dp2076
ssI247459133
(dp2077
g1025
(dp2078
ssI906577131869806594
(dp2079
sI548687171
(dp2080
g1278
(dp2081
ssI21558596
(dp2082
sI37764422
(dp2083
g914
(dp2084
ssI872253703188774912
(dp2085
sI48055626
(dp2086
sI8453452
(dp2087
g953
(dp2088
ssI118818125
(dp2089
sI147961168
(dp2090
g921
(dp2091
ssI856646196378710017
(dp2092
g992
(dp2093
ssI19586276
(dp2094
g929
(dp2095
ssI805433385623568385
(dp2096
g971
(dp2097
ssI906590918307807232
(dp2098
sI70544738
(dp2099
I829789919744761856
(dp2100
sI898760444533288960
(dp2101
sI497250434
(dp2102
sI2872661847
(dp2103
sI21558596
(dp2104
sI779956501754605568
(dp2105
sI878604381050032129
(dp2106
sI872253703188774912
(dp2107
sI863044429615169536
(dp2108
sI828028274047668226
(dp2109
sI108698830
(dp2110
sI1300301
(dp2111
sI2772648048
(dp2112
sI840943865133703168
(dp2113
sI2293549970
(dp2114
sI112621492
(dp2115
sI1626421878
(dp2116
sI66467735
(dp2117
sI325890557
(dp2118
sI23346175
(dp2119
ssI20150502
(dp2120
g968
(dp2121
ssI3152186729
(dp2122
g992
(dp2123
ssI172774762
(dp2124
sI22203756
(dp2125
g914
(dp2126
ssI252104045
(dp2127
g941
(dp2128
ssI801244331487219712
(dp2129
sI810685395377725440
(dp2130
sI228535666
(dp2131
g918
(dp2132
ssI19834228
(dp2133
g1001
(dp2134
ssI287624578
(dp2135
sI800094690666131456
(dp2136
sI270839361
(dp2137
g929
(dp2138
ssI57335176
(dp2139
sI22986121
(dp2140
sI890526296794685441
(dp2141
g1297
(dp2142
ssI2238324110
(dp2143
I856473488659537920
(dp2144
sI860070224820875265
(dp2145
sI16340480
(dp2146
sI2382904118
(dp2147
sI828347623098560512
(dp2148
sI846380717349240833
(dp2149
sI784401549778911232
(dp2150
sI49740651
(dp2151
sI48304141
(dp2152
sI753136193190109184
(dp2153
sI292146610
(dp2154
sI857543865724809217
(dp2155
sI942655830
(dp2156
sI2880685079
(dp2157
sI30358586
(dp2158
sI773397580051017728
(dp2159
sI859659008
(dp2160
sI897368871669084160
(dp2161
sI150317310
(dp2162
sI136499071
(dp2163
ssI892152461082984449
(dp2164
sI809743447246733312
(dp2165
g1297
(dp2166
sg971
(dp2167
ssI2168866206
(dp2168
sI904929019136704512
(dp2169
sI14366112
(dp2170
g953
(dp2171
ssI860070224820875265
(dp2172
sI90348965
(dp2173
g956
(dp2174
ssI197567914
(dp2175
sI23158189
(dp2176
g986
(dp2177
ssI335287726
(dp2178
sI471672239
(dp2179
g914
(dp2180
ssI2881274440
(dp2181
sI292146610
(dp2182
sI885743171845488641
(dp2183
sI75541946
(dp2184
g914
(dp2185
ssI79386044
(dp2186
sI30313925
(dp2187
g948
(dp2188
ssI1345646022
(dp2189
g945
(dp2190
ssI93406669
(dp2191
g936
(dp2192
ssI8771022
(dp2193
g948
(dp2194
ssI630169165
(dp2195
g929
(dp2196
ssI1965255073
(dp2197
sI3296742865
(dp2198
sI554468819
(dp2199
g921
(dp2200
ssI900436451216830465
(dp2201
sI27966935
(dp2202
g1011
(dp2203
sg978
(dp2204
ssI1029295578
(dp2205
g1278
(dp2206
ssI19113435
(dp2207
g1048
(dp2208
ssI805538910394785793
(dp2209
sI828051573725134848
(dp2210
sI505083
(dp2211
g929
(dp2212
ssI231673318
(dp2213
g903
(dp2214
ssI18906599
(dp2215
sI759871070136598528
(dp2216
sI4804296170
(dp2217
I3283517792
(dp2218
sI704482666955976704
(dp2219
sI3146359696
(dp2220
sI33667397
(dp2221
sI875313173083164673
(dp2222
sI57335176
(dp2223
sI103622347
(dp2224
sI24594252
(dp2225
sI90727790
(dp2226
sI36387920
(dp2227
sI2403937010
(dp2228
sI81801844
(dp2229
sI3353579894
(dp2230
sI157638614
(dp2231
sI2768703929
(dp2232
sI2331859771
(dp2233
sI2198878544
(dp2234
sI549925200
(dp2235
sI2168866206
(dp2236
sI1522620229
(dp2237
ssI223671790
(dp2238
sI15416816
(dp2239
sI5099091
(dp2240
g1107
(dp2241
ssI1339835893
(dp2242
g918
(dp2243
sg948
(dp2244
ssI2763795958
(dp2245
sI276514295
(dp2246
g1025
(dp2247
ssI615927039
(dp2248
g1001
(dp2249
ssI4022842876
(dp2250
sI2159138301
(dp2251
sI179043039
(dp2252
g956
(dp2253
ssI16340480
(dp2254
sI906289871764963328
(dp2255
sI292083207
(dp2256
g921
(dp2257
ssI171968009
(dp2258
g1005
(dp2259
ssI14941706
(dp2260
g1278
(dp2261
ssI3643403789
(dp2262
g995
(dp2263
ssI197731854
(dp2264
g956
(dp2265
ssI19373583
(dp2266
g992
(dp2267
ssI20490840
(dp2268
sI90727790
(dp2269
sI809920015298424832
(dp2270
sI357606935
(dp2271
I863291154556624896
(dp2272
sI812462389991854080
(dp2273
sI906583132551487490
(dp2274
sI900436451216830465
(dp2275
sI906586306834132993
(dp2276
sI900122114388357126
(dp2277
sI906587112325238784
(dp2278
sI906585765651652609
(dp2279
sI39835363
(dp2280
sI893765510285983744
(dp2281
sI906578165648171008
(dp2282
sI839351135131443200
(dp2283
sI906583761285996544
(dp2284
sI262439605
(dp2285
sI3120443075
(dp2286
sI10142932
(dp2287
sI892152461082984449
(dp2288
sI19319767
(dp2289
sI3267350677
(dp2290
sI906584587815583744
(dp2291
ssI63262233
(dp2292
g968
(dp2293
ssI22703645
(dp2294
g914
(dp2295
ssI627463714
(dp2296
sI724924108400672769
(dp2297
g971
(dp2298
ssI219582726
(dp2299
g924
(dp2300
ssI124002304
(dp2301
g986
(dp2302
ssI3131448873
(dp2303
sI4366246647
(dp2304
sI900073700178919425
(dp2305
sI898760444533288960
(dp2306
g968
(dp2307
ssI906589963206184961
(dp2308
sI740597986846203904
(dp2309
sI197336641
(dp2310
sI18105922
(dp2311
g921
(dp2312
ssI18341444
(dp2313
g936
(dp2314
ssI77686342
(dp2315
g936
(dp2316
ssI833376066966167552
(dp2317
g995
(dp2318
ssI780186726228750336
(dp2319
sI14067639
(dp2320
sI17006157
(dp2321
g918
(dp2322
ssI545361165
(dp2323
g941
(dp2324
ssI231442000
(dp2325
g1025
(dp2326
ssI2325495378
(dp2327
g914
(dp2328
ssI858940238273683456
(dp2329
sI31448660
(dp2330
g968
(dp2331
ssI864928799603011591
(dp2332
g995
(dp2333
ssI712240414166634496
(dp2334
g1278
(dp2335
ssI4171431515
(dp2336
sI418991709
(dp2337
sI4003911263
(dp2338
sI942655830
(dp2339
sI31080039
(dp2340
g918
(dp2341
ssI72568426
(dp2342
g929
(dp2343
ssI416647783
(dp2344
sI196032110
(dp2345
g945
(dp2346
ssI77216701
(dp2347
sI829789919744761856
(dp2348
g968
(dp2349
ssI705324658
(dp2350
g1011
(dp2351
ssI2153016948
(dp2352
g1278
(dp2353
ssI261371509
(dp2354
g1297
(dp2355
ssI99868278
(dp2356
g956
(dp2357
ssI2176745083
(dp2358
I883592400752566272
(dp2359
sI901767932304392192
(dp2360
sI2155579778
(dp2361
sI118115748
(dp2362
sI2543408102
(dp2363
sI802392555807735808
(dp2364
sI872075482384224257
(dp2365
sI96071944
(dp2366
sI24329353
(dp2367
sI4804296170
(dp2368
sI299558731
(dp2369
sI2204463980
(dp2370
sI903019254102069250
(dp2371
sI94195631
(dp2372
sI1660862130
(dp2373
sI830813993824636928
(dp2374
sI128724853
(dp2375
sI19685572
(dp2376
sI14306430
(dp2377
sI548625029
(dp2378
ssI1400555132
(dp2379
sI519753341
(dp2380
sI197676671
(dp2381
g936
(dp2382
ssI3245667971
(dp2383
sI906587112325238784
(dp2384
sI906578165648171008
(dp2385
sI446620951
(dp2386
sI249829698
(dp2387
sI256793538
(dp2388
g995
(dp2389
ssI1955597970
(dp2390
g995
(dp2391
ssI2884538307
(dp2392
g1048
(dp2393
ssI4824813166
(dp2394
g1278
(dp2395
ssI822844948433301504
(dp2396
sI64003736
(dp2397
g986
(dp2398
ssI69675599
(dp2399
g1278
(dp2400
ssI20659868
(dp2401
g948
(dp2402
ssI865721143369506816
(dp2403
g1297
(dp2404
ssI197717666
(dp2405
g1025
(dp2406
ssI906482187284959233
(dp2407
sI299734693
(dp2408
g1048
(dp2409
ssI1729822376
(dp2410
g1107
(dp2411
ssI633992873
(dp2412
g1011
(dp2413
ssI1660862130
(dp2414
g903
(dp2415
ssI2208812724
(dp2416
sI3078420766
(dp2417
sI257796800
(dp2418
g956
(dp2419
ssI2383492793
(dp2420
sI801959011247484928
(dp2421
g992
(dp2422
ssI197752508
(dp2423
sI117269671
(dp2424
g956
(dp2425
ssI866392710411948032
(dp2426
sI886318841260802049
(dp2427
sI906590945742868482
(dp2428
sI3120443075
(dp2429
sI16378486
(dp2430
g1005
(dp2431
ssI840943865133703168
(dp2432
sI24024778
(dp2433
g968
(dp2434
ssI826217983290769410
(dp2435
I839177690544488449
(dp2436
ssI698153378757660672
(dp2437
g1278
(dp2438
ssI894352469744001024
(dp2439
sI1472026321
(dp2440
sI211037906
(dp2441
sI34209496
(dp2442
g964
(dp2443
ssI213698852
(dp2444
g945
(dp2445
ssI743071503642566657
(dp2446
sI2388207329
(dp2447
sI39835363
(dp2448
sI974802661
(dp2449
sI124229352
(dp2450
g1278
(dp2451
ssI872075482384224257
(dp2452
g903
(dp2453
ssI161715155
(dp2454
g1048
(dp2455
ssI52009598
(dp2456
g956
(dp2457
ssI2305384189
(dp2458
g1005
(dp2459
ssI906588826885173248
(dp2460
sI856473488659537920
(dp2461
sI185374468
(dp2462
g936
(dp2463
ssI906590907608195072
(dp2464
sI882645123196231680
(dp2465
I5815392
(dp2466
sI858513720925978624
(dp2467
sI4833544738
(dp2468
sI3245667971
(dp2469
sI3247776197
(dp2470
sI738894256593502208
(dp2471
sI44998279
(dp2472
sI3131448873
(dp2473
sI249829698
(dp2474
sI787772328398692352
(dp2475
sI1472026321
(dp2476
sI1461170642
(dp2477
sI974802661
(dp2478
sI759871070136598528
(dp2479
sI2763795958
(dp2480
sI1849075543
(dp2481
sI2383492793
(dp2482
sI2388207329
(dp2483
sI479826814
(dp2484
sI812376663560519680
(dp2485
ssI202258185
(dp2486
sI4910329610
(dp2487
g1278
(dp2488
ssI151295755
(dp2489
g1048
(dp2490
ssI173699375
(dp2491
g1278
(dp2492
ssI20963090
(dp2493
sI2894114580
(dp2494
g971
(dp2495
ssI813750042
(dp2496
sI93673775
(dp2497
g948
(dp2498
ssI57779998
(dp2499
g1297
(dp2500
ssI64997151
(dp2501
sI3274699908
(dp2502
sI906588853120720897
(dp2503
sI1932851846
(dp2504
g1011
(dp2505
sg978
(dp2506
ssI56561449
(dp2507
g914
(dp2508
ssI197812010
(dp2509
g936
(dp2510
ssI906588368108224512
(dp2511
sI431413036
(dp2512
sI860137000686338048
(dp2513
sI3734732592
(dp2514
g945
(dp2515
ssI4905251806
(dp2516
g995
(dp2517
ssI773397580051017728
(dp2518
sI279827082
(dp2519
g1025
(dp2520
ssI2191169342
(dp2521
sI3082022719
(dp2522
sI3441047360
(dp2523
g1278
(dp2524
ssI190404578
(dp2525
g992
(dp2526
ssI20479813
(dp2527
g1099
(dp2528
ssI299558731
(dp2529
g903
(dp2530
ssI24594252
(dp2531
sI1300301
(dp2532
sI419918470
(dp2533
g929
(dp2534
ssI115414863
(dp2535
sI9207632
(dp2536
g941
(dp2537
ssI702739245195096065
(dp2538
g992
(dp2539
ssI3417556319
(dp2540
g1297
(dp2541
ssI2872661847
(dp2542
sI2242922330
(dp2543
g1107
(dp2544
ssI191889245
(dp2545
g986
(dp2546
ssI50476895
(dp2547
g986
(dp2548
ssI4121225056
(dp2549
g914
(dp2550
ssI2247018338
(dp2551
g978
(dp2552
ssI839177690544488449
(dp2553
sI197680102
(dp2554
sI50329448
(dp2555
g1297
(dp2556
ssI322293052
(dp2557
g914
(dp2558
ssI757667003092140032
(dp2559
g971
(dp2560
ssI280860526
(dp2561
g1025
(dp2562
ssI122339183
(dp2563
g936
(dp2564
ssI48927836
(dp2565
sI180733809
(dp2566
g918
(dp2567
ssI121204594
(dp2568
g995
(dp2569
ssI33648499
(dp2570
g921
(dp2571
ssI128724853
(dp2572
sI1890938744
(dp2573
g921
(dp2574
ssI906591142527070208
(dp2575
sI275476458
(dp2576
g1025
(dp2577
ssI906590318207881218
(dp2578
sI858513720925978624
(dp2579
sI729676086632656900
(dp2580
g914
(dp2581
ssI21655428
(dp2582
g986
(dp2583
ssI118896517
(dp2584
sI906590421572186112
(dp2585
sI58105735
(dp2586
g995
(dp2587
ssI61636488
(dp2588
g948
(dp2589
ssI171020169
(dp2590
sI21431618
(dp2591
g921
(dp2592
ssI211269614
(dp2593
g971
(dp2594
ssI884677621547757568
(dp2595
sI66467735
(dp2596
sI1587890072
(dp2597
sI2567908676
(dp2598
g992
(dp2599
ssI891796727791005697
(dp2600
sI721519833561477120
(dp2601
sI705488139091972096
(dp2602
sI906586306834132993
(dp2603
sI47032231
(dp2604
g945
(dp2605
ssI901767932304392192
(dp2606
sI830813993824636928
(dp2607
g903
(dp2608
ssI94195631
(dp2609
sI2590257072
(dp2610
sI236631986
(dp2611
sI112621492
(dp2612
sI216776631
(dp2613
g918
(dp2614
ssI2174463928
(dp2615
g992
(dp2616
ssI878604381050032129
(dp2617
sI906587359768203266
(dp2618
sI587191730
(dp2619
g945
(dp2620
ssI18442178
(dp2621
sI735275750505340928
(dp2622
g1048
(dp2623
ssI606211203
(dp2624
g929
(dp2625
ssI897368871669084160
(dp2626
sI17891273
(dp2627
g948
(dp2628
ssI2717044682
(dp2629
sI613398477
(dp2630
g945
(dp2631
ssI322953166
(dp2632
g1048
(dp2633
ssI21878736
(dp2634
sI157638614
(dp2635
sI286261212
(dp2636
sI91285471
(dp2637
g986
(dp2638
ssI55570400
(dp2639
g941
(dp2640
ssI21954529
(dp2641
g1005
(dp2642
ssI2457429986
(dp2643
sI800707492346925056
(dp2644
g1048
(dp2645
ssI49879012
(dp2646
sI444470743
(dp2647
g1107
(dp2648
ssI16113639
(dp2649
g948
(dp2650
ssI26322920
(dp2651
g948
(dp2652
ssI99362794
(dp2653
g1001
(dp2654
ssI17171111
(dp2655
g948
(dp2656
ssI905742450274082816
(dp2657
sI906124632155181056
(dp2658
sI846137120209190912
(dp2659
g968
(dp2660
ssI64397992
(dp2661
g1005
(dp2662
ssI5402612
(dp2663
g918
(dp2664
ssI791306523062497280
(dp2665
g992
(dp2666
ssI1087440553
(dp2667
g1297
(dp2668
sssS'edge'
p2669
g875
sS'graph'
p2670
(dp2671
sS'adjlist_dict_factory'
p2672
g872
sS'adj'
p2673
g875
sS'pred'
p2674
(dp2675
I885393827103727616
(dp2676
I545561179
g1480
sI429857924
g990
sI1345646022
g2190
sI38617670
g1463
sI47032231
g2605
sg986
g1616
sI613398477
g2631
sI196032110
g2346
sI23567501
g1982
sI3734732592
g2515
sI187881969
g1387
sI587191730
g2620
sI468640052
g1208
sI213698852
g2445
sI35430180
g1644
sI214409268
g946
sI865334042
g1603
sI858794683
g1540
sI3297575484
g1457
sI280896606
g1945
sI855756072
g2072
ssI842714107178450944
(dp2677
g986
g1617
ssI906590439578460162
(dp2678
g914
g1084
ssI900031402845978627
(dp2679
sI885697397564866564
(dp2680
g986
g1619
ssI906587332157026309
(dp2681
g1011
g1755
ssI796902352963764224
(dp2682
g986
g1620
ssI906586171278585857
(dp2683
I2247018338
g2552
sI1932851846
g2506
sI1371618385
g1938
sI790728
g1066
sg1011
g1762
sI1691574356
g979
sI27966935
g2204
ssI2675288072
(dp2684
g1278
g1908
ssI266420236
(dp2685
g1048
g1256
ssI901941258318479362
(dp2686
g914
g1081
ssI906589926510260225
(dp2687
g1005
g1132
ssI20733972
(dp2688
sI906590003328937984
(dp2689
g1005
g1140
ssI14075928
(dp2690
sI2990729241
(dp2691
sI106762266
(dp2692
sI191450458
(dp2693
g956
g1193
ssI817873519954587653
(dp2694
g995
g1237
ssI976900128
(dp2695
sI3457675883
(dp2696
g945
g886
ssI823367015830323201
(dp2697
sI906589922886373382
(dp2698
g914
g1078
ssI108648487
(dp2699
g936
g1157
ssI14850088
(dp2700
g1025
g1672
ssI906589970009346055
(dp2701
g1005
g1135
sg914
g1090
ssI365939318
(dp2702
sI906583132551487490
(dp2703
g948
g2274
ssI214409268
(dp2704
sI117743669
(dp2705
sI197545311
(dp2706
sI10729532
(dp2707
sI197810238
(dp2708
sI61440064
(dp2709
sI3283517792
(dp2710
g1107
g2218
ssI970207298
(dp2711
sI384951307
(dp2712
sI2212489284
(dp2713
g1278
g1905
ssI443215941
(dp2714
sI765515105576550400
(dp2715
sI738894256593502208
(dp2716
g992
g2471
ssI48304141
(dp2717
g1001
g2152
ssI29995782
(dp2718
sI1691574356
(dp2719
sI4827631701
(dp2720
sI731342744157741056
(dp2721
g1278
g1917
ssI2214869083
(dp2722
sI49049693
(dp2723
sI433741920
(dp2724
g995
g1218
ssI429857924
(dp2725
g945
g879
ssI1485733987
(dp2726
sI1221025892
(dp2727
sI784401549778911232
(dp2728
g1001
g2150
ssI2772648048
(dp2729
g968
g2112
ssI98314354
(dp2730
g1025
g1679
ssI5625972
(dp2731
sI4916410486
(dp2732
g1297
g1659
ssI2750877815
(dp2733
sI1243555962
(dp2734
g936
g1169
ssI223166587
(dp2735
sI48906364
(dp2736
sI887063489625325572
(dp2737
sI14669951
(dp2738
sI3064789121
(dp2739
sI497250434
(dp2740
g968
g2102
ssI3486152835
(dp2741
g995
g1220
ssI2719944836
(dp2742
g945
g881
ssI235261974
(dp2743
sI906590151605751808
(dp2744
g1005
g1131
ssI5392522
(dp2745
sI20316308
(dp2746
g1048
g1260
ssI3267350677
(dp2747
g948
g2290
ssI50294938
(dp2748
sI28113052
(dp2749
sI1532061
(dp2750
sI342599843
(dp2751
sI816298918468259841
(dp2752
sI4025225381
(dp2753
g921
g1360
ssI812376663560519680
(dp2754
g992
g2485
ssI80361644
(dp2755
sI143024790
(dp2756
g1025
g1681
ssI394465457
(dp2757
sI16548023
(dp2758
sI813749727170793473
(dp2759
sI887878687
(dp2760
sI838672863716589568
(dp2761
sI802392555807735808
(dp2762
g903
g2364
ssI19685572
(dp2763
g903
g2376
ssI3353579894
(dp2764
g1107
g2230
ssI994511047
(dp2765
sI790728
(dp2766
sI704482666955976704
(dp2767
g1107
g2219
ssI14989516
(dp2768
sI376967376
(dp2769
g1297
g1654
ssI25073877
(dp2770
I720293443260456960
g1123
sI823367015830323201
g933
sI245963716
g1805
sI37764422
g2084
sI475802156
g1444
sI822215673812119553
g1783
sI56561449
g2508
sI22203756
g2126
sI4121225056
g2550
sI471672239
g2180
sI2325495378
g2328
sI20733972
g915
sI50769180
g2065
sI41634520
g1562
sI729676086632656900
g2581
sI75541946
g2185
sI322293052
g2558
sI22703645
g2295
sI196168350
g1525
sI14669951
g1016
ssI906588395492794368
(dp2771
g1011
g1752
ssI68522205
(dp2772
sI240664803
(dp2773
g1048
g1250
sg941
g1419
ssI813286
(dp2774
sI896980623809818624
(dp2775
g1011
g1758
ssI21332200
(dp2776
sI139092348
(dp2777
sI1345476306
(dp2778
sI855999418411208704
(dp2779
g941
g1426
ssI381868271
(dp2780
g956
g1184
ssI22425840
(dp2781
sI837883810356334593
(dp2782
g1278
g1907
ssI197624060
(dp2783
sI150317310
(dp2784
g1001
g2162
ssI434829567
(dp2785
sI197742170
(dp2786
sI762396950339747840
(dp2787
g986
g1635
ssI720293443260456960
(dp2788
sI417650980
(dp2789
g1025
g1669
ssI96071944
(dp2790
g903
g2366
ssI29442313
(dp2791
I713048630173638656
g2037
sI21954529
g2642
sI80366372
g1564
sI16714630
g2070
sI47034524
g1789
sI21332200
g1103
sI171968009
g2259
sI64397992
g2662
sI80361644
g1045
sI15160529
g2026
sI637196658
g1286
sI18691048
g1834
sI16378486
g2431
sI2750877815
g1006
sI816298918468259841
g1041
sI16206682
g1706
sI402957663
g1825
sI28113052
g1035
sI2305384189
g2459
sI15099007
g1971
ssI14206795
(dp2792
g953
g1867
ssI564173073
(dp2793
sI14749971
(dp2794
sI197574940
(dp2795
I181542016
g1973
sI222726561
g1312
sI185374468
g2463
sI77686342
g2316
sI108648487
g937
sI197812010
g2510
sI26102066
g1206
sI93406669
g2192
sI122339183
g2564
sI117605296
g1795
sI182837791
g1411
sI197545311
g951
sI128052116
g1773
sI197634351
g1204
sI197676671
g2382
sI18341444
g2314
sI197589439
g1327
sI197624060
g1115
sI56769022
g1390
sI135439167
g1691
ssI197660958
(dp2796
I257796800
g2419
sI189293091
g1415
sI197731588
g2052
sI90348965
g2174
sI117269671
g2425
sI115364872
g1856
sI210428700
g1533
sI179850444
g2022
sI197731854
g2265
sI185510351
g1339
sI197507697
g1492
sI109998675
g1473
sI52009598
g2457
sI99868278
g2357
sI197570872
g1210
sI197742170
g1120
sI179043039
g2253
sg936
g1172
sI197498685
g1724
sI197810238
g957
sI128148127
g1325
ssI814231264765026305
(dp2797
sI972558726
(dp2798
sI9300262
(dp2799
sI906582360405278720
(dp2800
I838672863716589568
g1057
sI813749727170793473
g1053
sI724924108400672769
g2298
sI4704895717
g1573
sI806798260094451712
g1941
sI805433385623568385
g2097
sI3064789121
g1018
sI2269066730
g1736
sI3437747915
g1547
sI757667003092140032
g2560
sI211269614
g2594
sI809743447246733312
g2167
sg1011
g1767
sI2894114580
g2495
sI55835157
g1404
sI2214869083
g984
sI4830585628
g1606
sI814231264765026305
g1196
sI994511047
g1064
sI765515105576550400
g972
ssI3398633772
(dp2801
g995
g1228
ssI197634351
(dp2802
sI26102066
(dp2803
sI468640052
(dp2804
sI197570872
(dp2805
sI11348282
(dp2806
sI307423967
(dp2807
sI355367229
(dp2808
g1297
g1663
ssI388677953
(dp2809
g1278
g1912
ssI46541122
(dp2810
I833376066966167552
g2318
sI779613876228730881
g1314
sI256793538
g2389
sI3486152835
g1022
sI799714384096280580
g1504
sI864928799603011591
g2333
sI755733097
g1489
sg1099
g2012
sI58105735
g2587
sI396645388
g1860
sI900119151372492801
g2058
sI3643403789
g2263
sI352672945
g2005
sI1955597970
g2391
sI410282644
g1516
sI736763562530471937
g1346
sI1969984345
g1704
sI121204594
g2569
sI1221025892
g996
sI30684018
g1728
sI4905251806
g2517
ssI33667397
(dp2811
g1107
g2221
ssI594874694
(dp2812
g995
g1221
ssI48996679
(dp2813
g953
g1866
ssI2257558088
(dp2814
g995
g1232
ssI906133598553681920
(dp2815
g1011
g1769
ssI2198878544
(dp2816
g1107
g2234
ssI57334102
(dp2817
sI55064920
(dp2818
I735275750505340928
g2623
sI800707492346925056
g2645
sI2884538307
g2393
sI48071844
g1816
sI299734693
g2409
sI161715155
g2455
sI2511471793
g1889
sI19113435
g2208
sI37610602
g1960
sI151295755
g2490
sI322953166
g2633
sI49535791
g1641
sI394465457
g1049
sI113130259
g1597
sI93293716
g1988
sI254337496
g1352
sI53338746
g1500
sI35001979
g1611
sg921
g1372
sI68522205
g1096
sI147409758
g1710
ssI82071897
(dp2819
g956
g1191
ssI2508941658
(dp2820
sI4871584091
(dp2821
g921
g1373
ssI30358586
(dp2822
g1001
g2158
ssI501270879
(dp2823
sI65069408
(dp2824
sI906583761285996544
(dp2825
g948
g2284
ssI3146115426
(dp2826
sI104063340
(dp2827
sI905180324937785345
(dp2828
g945
g887
ssI906588868471902208
(dp2829
g1011
g1764
ssI787772328398692352
(dp2830
g992
g2475
ssI637196658
(dp2831
sI211648886
(dp2832
g1048
g1251
ssI107037417
(dp2833
g921
g1363
ssI267338104
(dp2834
sI30663036
(dp2835
g1011
g1768
ssI16249213
(dp2836
sI2155579778
(dp2837
g903
g2361
ssI828347623098560512
(dp2838
g1001
g2148
ssI217749896
(dp2839
sI864470444245757952
(dp2840
g986
g1621
ssI208232847
(dp2841
sI92449170
(dp2842
g953
g1868
ssI479863188
(dp2843
sI30364057
(dp2844
sI846380717349240833
(dp2845
g1001
g2149
ssI477667743
(dp2846
sI1001048480
(dp2847
g1278
g1915
ssI222726561
(dp2848
sI779613876228730881
(dp2849
sI890502325474865152
(dp2850
g941
g1425
ssI124963911
(dp2851
g1005
g1136
ssI1169637804
(dp2852
sI812462389991854080
(dp2853
g948
g2273
ssI471287735
(dp2854
sI2843515318
(dp2855
g1005
g1143
ssI3882117561
(dp2856
g1297
g1661
ssI128148127
(dp2857
sI197589439
(dp2858
sI37999041
(dp2859
sI1306925508
(dp2860
sI3247776197
(dp2861
g992
g2470
ssI2250760609
(dp2862
I106762266
g925
sg953
g1863
sI219582726
g2300
ssI716510667243651072
(dp2863
g1297
g1665
ssI416676471
(dp2864
g1025
g1682
ssI85772748
(dp2865
sI185510351
(dp2866
sI192862672
(dp2867
sI1461170642
(dp2868
g992
g2477
ssI873261523
(dp2869
sI736763562530471937
(dp2870
g995
g1223
ssI15933910
(dp2871
sI4782551
(dp2872
sI254337496
(dp2873
sI118115748
(dp2874
g903
g2362
ssI963637723
(dp2875
g1025
g1685
ssI104673756
(dp2876
I890281627540213760
g1722
sI22425840
g1112
sI78525538
g1949
sI33989747
g1963
sI1306925508
g1331
sI292083207
g2257
sI554468819
g2200
sI19227177
g2042
sI42738666
g1836
sI14873767
g1997
sI14989516
g1070
sI21431618
g2592
sI16020654
g2001
sI147961168
g2091
sI33648499
g2571
sI18105922
g2312
sI1890938744
g2574
sI2990729241
g922
sI18378044
g2076
sI57396255
g1886
ssI588200416
(dp2877
sI906590655278919681
(dp2878
g914
g1077
ssI55181796
(dp2879
sI165549137
(dp2880
g1025
g1678
ssI147335250
(dp2881
sI755821622641254401
(dp2882
sI187881969
(dp2883
sI325890557
(dp2884
g968
g2118
ssI56769022
(dp2885
sI893765510285983744
(dp2886
g948
g2281
ssI549925200
(dp2887
g1107
g2235
ssI359340545
(dp2888
sI8442372
(dp2889
sI44998279
(dp2890
g992
g2472
ssI906588016004579328
(dp2891
g914
g1085
ssI197726728
(dp2892
g936
g1164
ssI9376172
(dp2893
sI197553874
(dp2894
g956
g1186
ssI55835157
(dp2895
sI277948950
(dp2896
g956
g1189
ssI2181560068
(dp2897
g945
g891
ssI1404590618
(dp2898
sI182837791
(dp2899
sI857543865724809217
(dp2900
g1001
g2155
ssI4833544738
(dp2901
g992
g2468
ssI189293091
(dp2902
g956
g1185
ssI838142099035996161
(dp2903
I55570400
g2640
sI842423007834443777
g2031
sI2903979971
g1571
sI48071844
g1817
sI29995782
g976
sI243563201
g1543
sI61440064
g959
sI267512876
g1895
sI701725963
g2056
sI9376172
g1401
sI545361165
g2324
sI252104045
g2128
sI9207632
g2537
sI411405379
g1929
sI93293716
g1989
sI4827631701
g981
sI365939318
g942
sI80077721
g1775
sI380814299
g1820
sg921
g1359
ssI1689702150
(dp2904
sI906590687491006464
(dp2905
g1005
g1134
sg914
g1083
ssI1322416681
(dp2906
g921
g1364
ssI19697415
(dp2907
sI475802156
(dp2908
sI44196397
(dp2909
sI16399908
(dp2910
sI374481331
(dp2911
g956
g1187
ssI15143478
(dp2912
sI1924071992
(dp2913
g941
g1434
ssI554666554
(dp2914
sI3297575484
(dp2915
sI77316669
(dp2916
sI5815392
(dp2917
g992
g2466
ssI3340073541
(dp2918
g941
g1428
ssI38617670
(dp2919
sI2697757255
(dp2920
g1048
g1253
ssI1646934600
(dp2921
g995
g1227
ssI4643811147
(dp2922
sI386263630
(dp2923
sI98554447
(dp2924
sI109998675
(dp2925
sI52120149
(dp2926
g1099
g2013
sg936
g1166
sg953
g1871
ssI2768703929
(dp2927
g1107
g2232
ssI1521687128
(dp2928
g1011
g1766
ssI143303257
(dp2929
g956
g1190
ssI545561179
(dp2930
sI197517921
(dp2931
g936
g1154
ssI822376728723070976
(dp2932
g1297
g1650
ssI1908105828
(dp2933
sI21918310
(dp2934
sI891081498790703104
(dp2935
g945
g885
ssI755733097
(dp2936
sI376077163
(dp2937
g1048
g1255
ssI197507697
(dp2938
sI906585619983454208
(dp2939
g1011
g1760
ssI81801844
(dp2940
g1107
g2229
ssI1228243574
(dp2941
sI108628599
(dp2942
sI53338746
(dp2943
sI255982015
(dp2944
g1278
g1922
ssI51879018
(dp2945
g941
g1424
ssI799714384096280580
(dp2946
sI779956501754605568
(dp2947
g968
g2105
ssI191656579
(dp2948
g941
g1430
ssI130957956
(dp2949
sI548625029
(dp2950
g903
g2378
ssI899192137845264384
(dp2951
g921
g1369
ssI2908510858
(dp2952
sI2806112911
(dp2953
g945
g888
ssI410282644
(dp2954
sI20109973
(dp2955
sI58503830
(dp2956
g914
g1088
ssI37413528
(dp2957
sI1962661579
(dp2958
sI196168350
(dp2959
sI712602271
(dp2960
g941
g1436
ssI1453960987
(dp2961
g941
g1435
ssI808694770835083265
(dp2962
g941
g1418
ssI906589376746008576
(dp2963
g1005
g1133
ssI753136193190109184
(dp2964
g1001
g2153
ssI2888956584
(dp2965
g986
g1622
ssI210428700
(dp2966
sI866340866738323456
(dp2967
g1297
g1646
ssI1636590253
(dp2968
sI873917041048256512
(dp2969
g1278
g1903
ssI262439605
(dp2970
g948
g2285
ssI858794683
(dp2971
sI1694939840
(dp2972
g941
g1417
ssI243563201
(dp2973
sI828028274047668226
(dp2974
g968
g2109
ssI3150179013
(dp2975
g1297
g1656
ssI3437747915
(dp2976
sI248699593
(dp2977
g936
g1168
ssI747807250819981312
(dp2978
sI7008972
(dp2979
sI101331661
(dp2980
sI863291154556624896
(dp2981
g1005
g1128
sg948
g2272
ssI45363552
(dp2982
sI88621782
(dp2983
sI2794535639
(dp2984
g941
g1433
ssI41634520
(dp2985
sI80366372
(dp2986
sI906590875853058048
(dp2987
g1005
g1145
ssI718519004
(dp2988
sI52264741
(dp2989
sI2903979971
(dp2990
sI4704895717
(dp2991
sI349022952
(dp2992
sI17226473
(dp2993
g986
g1623
ssI2403937010
(dp2994
g1107
g2228
ssI2917670014
(dp2995
sI374258422
(dp2996
g953
g1865
ssI43680503
(dp2997
sI260842234
(dp2998
g936
g1159
ssI197638271
(dp2999
g936
g1173
ssI859659008
(dp3000
g1001
g2160
ssI883592400752566272
(dp3001
g903
g2359
ssI906590850985058304
(dp3002
g914
g1089
ssI233149192
(dp3003
sI271475466
(dp3004
g1025
g1680
ssI106837463
(dp3005
sI1436549250
(dp3006
sI146522898
(dp3007
g953
g1870
ssI113130259
(dp3008
sI868637460
(dp3009
sI1878473497
(dp3010
sI865334042
(dp3011
sI4830585628
(dp3012
sI705780698788073472
(dp3013
g945
g880
ssI100827937
(dp3014
sI35001979
(dp3015
sI859543363606896641
(dp3016
sI607651974
(dp3017
g956
g1178
ssI87823144
(dp3018
I261090400
g1947
sI359340545
g1394
sI77316669
g1459
sI21655428
g2583
sI124002304
g2302
sI3562471
g1832
sI349022952
g1575
sI104063340
g1281
sI23158189
g2177
sI65069408
g1275
sI191889245
g2546
sI64003736
g2398
sI208232847
g1301
sI383031509
g2046
sI15933910
g1348
sI106837463
g1592
sI91285471
g2638
sI18220175
g1984
sI49049693
g987
sI50476895
g2548
ssI861745475908775936
(dp3019
g945
g884
ssI359572266
(dp3020
sI863044429615169536
(dp3021
g968
g2108
ssI49535791
(dp3022
sI2382904118
(dp3023
g1001
g2147
ssI35430180
(dp3024
sI1926683448
(dp3025
I800494468310761472
g2067
sI890526296794685441
g2142
sI29471554
g1694
sI799294889540354048
g1958
sI855488685931999232
g1954
sI865721143369506816
g2404
sI50329448
g2556
sI1087440553
g2668
sI3380173685
g1732
sI4708866923
g1844
sI217749896
g1298
sI751721055031586816
g1708
sI261371509
g2355
sI43680503
g1582
sI37413528
g1521
sI3417556319
g2541
sI4830585628
g1605
sI4782551
g1350
sI57779998
g2500
sI809743447246733312
g2166
ssI2331859771
(dp3026
g1107
g2233
ssI118663997
(dp3027
I231442000
g2326
sI273269602
g1713
sI16399908
g1449
sI287482885
g1851
sI279827082
g2520
sI127512071
g1893
sI230691836
g1842
sI275476458
g2577
sI187119787
g1849
sI119016332
g1745
sI277383725
g2060
sI280860526
g2562
sI197717666
g2406
sI192862672
g1341
sI247459133
g2078
sI235261974
g1026
sI276514295
g2247
sI267338104
g1290
sI69681697
g2016
sg936
g1171
sI259904541
g1884
ssI2542375742
(dp3028
sI135439167
(dp3029
sI165204800
(dp3030
g921
g1370
ssI29471554
(dp3031
sI16264003
(dp3032
sI3013145413
(dp3033
g941
g1432
ssI20880206
(dp3034
sI228621136
(dp3035
g986
g1633
ssI13212502
(dp3036
sI1969984345
(dp3037
sI16206682
(dp3038
sI751721055031586816
(dp3039
sI147409758
(dp3040
sI906588962977931264
(dp3041
g914
g1079
ssI273269602
(dp3042
g1025
g1668
ssI50393960
(dp3043
sI244376426
(dp3044
g921
g1365
ssI49740651
(dp3045
g1001
g2151
ssI2204463980
(dp3046
g903
g2370
ssI197687975
(dp3047
g956
g1179
ssI890281627540213760
(dp3048
sI197498685
(dp3049
sI3312810864
(dp3050
sI30684018
(dp3051
sI2277106547
(dp3052
g1048
g1259
ssI831210356
(dp3053
g1297
g1657
ssI3380173685
(dp3054
sI852772124
(dp3055
sI2269066730
(dp3056
sI479826814
(dp3057
g992
g2484
ssI889211931202117632
(dp3058
g945
g882
ssI906590224695914496
(dp3059
g914
g1092
ssI47455112
(dp3060
sI1092006794
(dp3061
sI119016332
(dp3062
sI628237198
(dp3063
g956
g1183
ssI906590617119080448
(dp3064
g1005
g1142
ssI3146359696
(dp3065
g1107
g2220
ssI47813521
(dp3066
I1908105828
g1484
sI1932851846
g2505
sI48878503
g1787
sI47455112
g1741
sI633992873
g2413
sI1092006794
g1743
sI1962661579
g1523
sI18549724
g1822
sI705324658
g2351
sI119360445
g1801
sI17001490
g1876
sI14749971
g1152
sI20109973
g1518
sI27966935
g2203
sI1404590618
g1408
sI48906364
g1012
sI2164583325
g1779
sI434829567
g1118
ssI2293549970
(dp3067
g968
g2114
ssI128052116
(dp3068
sI80077721
(dp3069
sI60865434
(dp3070
sI2164583325
(dp3071
sI1522620229
(dp3072
g1107
g2237
ssI3087727522
(dp3073
g921
g1358
ssI822215673812119553
(dp3074
sI329519267
(dp3075
g956
g1176
ssI48878503
(dp3076
sI47034524
(dp3077
sI1548475308
(dp3078
sI1626421878
(dp3079
g968
g2116
ssI1333509038
(dp3080
g995
g1230
ssI117605296
(dp3081
sI57582514
(dp3082
g953
g1869
ssI4447527859
(dp3083
sI2580110263
(dp3084
g986
g1630
ssI119360445
(dp3085
sI906587332031246338
(dp3086
g1011
g1763
ssI788983419199852544
(dp3087
g986
g1618
ssI245963716
(dp3088
sI35171273
(dp3089
sI606667727
(dp3090
sI34743251
(dp3091
sI3270699990
(dp3092
g1297
g1649
ssI19319767
(dp3093
g948
g2289
ssI46123992
(dp3094
g986
g1628
ssI48071844
(dp3095
sI380814299
(dp3096
sI18549724
(dp3097
sI567989213
(dp3098
g1297
g1653
ssI402957663
(dp3099
sI1873312735
(dp3100
g986
g1634
ssI33502178
(dp3101
sI2543408102
(dp3102
g903
g2363
ssI3562471
(dp3103
sI18691048
(dp3104
sI42738666
(dp3105
sI399358955
(dp3106
sI149180925
(dp3107
sI230691836
(dp3108
sI4708866923
(dp3109
sI23346175
(dp3110
g968
g2119
ssI16303106
(dp3111
sI187119787
(dp3112
sI287482885
(dp3113
sI906584587815583744
(dp3114
g948
g2291
ssI595473415
(dp3115
sI115364872
(dp3116
sI16442379
(dp3117
sI396645388
(dp3118
sI40815629
(dp3119
I14366112
g2171
sI10729532
g954
sI34184372
g2007
sI8453452
g2088
sI1532061
g1037
ssI803685165851615232
(dp3120
g1278
g1913
ssI17001490
(dp3121
sI149099539
(dp3122
sI906587274858692608
(dp3123
g1011
g1770
ssI879451342372302848
(dp3124
g941
g1422
ssI2880685079
(dp3125
g1001
g2157
ssI31040536
(dp3126
g1025
g1683
ssI259904541
(dp3127
sI57396255
(dp3128
sI906587334501695489
(dp3129
g1011
g1765
ssI2511471793
(dp3130
sI21601320
(dp3131
sI127512071
(dp3132
sI267512876
(dp3133
sI742042196803739649
(dp3134
sI755436549416902656
(dp3135
g1278
g1906
ssI1022382600
(dp3136
g995
g1233
ssI3308659762
(dp3137
g914
g1086
ssI266734646
(dp3138
g953
g1872
ssI705466812717096960
(dp3139
I712240414166634496
g2335
sI3441047360
g2524
sI701069613627535362
g1979
sI548687171
g2081
sI706643098864988160
g2048
sI33041569
g1993
sI124229352
g2451
sI4910329610
g2488
sI3146115426
g1279
sI4824813166
g2395
sI69675599
g2400
sI233149192
g1589
sI147335250
g1383
sI698153378757660672
g2438
sI2153016948
g2353
sg1297
g1660
sI4707812505
g1991
sI1029295578
g2206
sI173699375
g2492
sI4447527859
g1798
sI14941706
g2261
ssI904261825864269825
(dp3140
g1278
g1904
ssI900122114388357126
(dp3141
g948
g2277
ssI302593083
(dp3142
sI906590897546166274
(dp3143
g1005
g1137
ssI411405379
(dp3144
sI1832479814
(dp3145
sI197592135
(dp3146
g936
g1161
ssI14857290
(dp3147
sI91942071
(dp3148
g1048
g1266
ssI36387920
(dp3149
g1107
g2227
ssI1371618385
(dp3150
sI806798260094451712
(dp3151
sI792783670033743876
(dp3152
g1278
g1918
ssI104016988
(dp3153
g1048
g1265
ssI280896606
(dp3154
sI261090400
(dp3155
sI78525538
(dp3156
sI2186755171
(dp3157
g918
g1965
ssI704505328956784641
(dp3158
sI855488685931999232
(dp3159
sI103622347
(dp3160
g1107
g2224
ssI799294889540354048
(dp3161
sI37610602
(dp3162
sI234941142
(dp3163
g1025
g1670
ssI33989747
(dp3164
sI906590770685108224
(dp3165
I1636590253
g1536
sI31080039
g2341
sI21601320
g1891
sg1005
g1146
sI14857290
g1934
sI16548023
g1051
sI17006157
g2322
sI44196397
g1446
sI180733809
g2567
sI228535666
g2132
sI34743251
g1811
sI5402612
g2664
sI1339835893
g2243
sI15143478
g1452
sI216776631
g2614
sI14075928
g919
sI30364057
g1306
sI11348282
g1212
sI50393960
g1715
sI2542375742
g1689
ssI593810556
(dp3166
sI14306430
(dp3167
g903
g2377
ssI15099007
(dp3168
sI181542016
(dp3169
sI849039681996165120
(dp3170
sI906590820656173056
(dp3171
g1005
g1141
ssI906590566762385408
(dp3172
I588200416
g1377
sI270839361
g2138
sI33502178
g1828
sI342599843
g1039
sI19586276
g2095
sI419918470
g2534
sI976900128
g930
sI593810556
g1967
sI72568426
g2343
sI48360631
g2033
sI85772748
g1337
sI630169165
g2196
sI45363552
g1557
sI606211203
g2625
sI479863188
g1304
sg914
g1076
sI471287735
g1321
sI60865434
g1777
sI505083
g2212
sI139092348
g1105
sI307423967
g1214
ssI701069613627535362
(dp3173
sI24329353
(dp3174
g903
g2367
ssI23567501
(dp3175
sI18220175
(dp3176
sI18912401
(dp3177
g921
g1368
ssI906590929724825600
(dp3178
g1005
g1144
ssI93293716
(dp3179
sI4707812505
(dp3180
sI33041569
(dp3181
sI906586621042200577
(dp3182
g1011
g1754
ssI880580574569570304
(dp3183
g941
g1423
ssI14873767
(dp3184
sI197600424
(dp3185
g936
g1158
ssI906590755371626496
(dp3186
g914
g1082
ssI16020654
(dp3187
sI2247355933
(dp3188
sI352672945
(dp3189
sI34184372
(dp3190
sI777341781360926720
(dp3191
g986
g1629
ssI24716475
(dp3192
sI1916120257
(dp3193
I52120149
g1475
sI16303106
g1847
sI20479813
g2528
sI813286
g1100
sI19697415
g1442
ssI903019254102069250
(dp3194
g903
g2371
ssI69681697
(dp3195
sI902869357298057216
(dp3196
g945
g877
ssI2252422987
(dp3197
sI48041163
(dp3198
g986
g1624
ssI179850444
(dp3199
sI108698830
(dp3200
g968
g2110
ssI15160529
(dp3201
sI10142932
(dp3202
g948
g2287
ssI7587032
(dp3203
sI842423007834443777
(dp3204
sI48360631
(dp3205
sI1849075543
(dp3206
g992
g2481
ssI3409521898
(dp3207
g1278
g1909
ssI713048630173638656
(dp3208
sI46476526
(dp3209
sI2927031541
(dp3210
g995
g1234
ssI19227177
(dp3211
sI136499071
(dp3212
g1001
g2163
ssI197586172
(dp3213
g936
g1170
ssI383031509
(dp3214
sI706643098864988160
(dp3215
sI134194433
(dp3216
sI197731588
(dp3217
sI16631045
(dp3218
g941
g1421
ssI839351135131443200
(dp3219
g948
g2283
ssI701725963
(dp3220
sI900119151372492801
(dp3221
g995
g1219
ssI277383725
(dp3222
sI3449148695
(dp3223
g1297
g1652
ssI875313173083164673
(dp3224
g1107
g2222
ssI2990264100
(dp3225
g953
g1864
ssI50769180
(dp3226
sI800494468310761472
(dp3227
sI906585765651652609
(dp3228
g948
g2279
ssI16714630
(dp3229
sI855756072
(dp3230
sI19397942
(dp3231
sI18378044
(dp3232
sI247459133
(dp3233
sI906577131869806594
(dp3234
g1011
g1761
ssI548687171
(dp3235
sI21558596
(dp3236
g968
g2104
ssI37764422
(dp3237
sI872253703188774912
(dp3238
g968
g2107
ssI48055626
(dp3239
g1278
g1910
ssI8453452
(dp3240
sI118818125
(dp3241
g936
g1162
ssI147961168
(dp3242
sI856646196378710017
(dp3243
sI19586276
(dp3244
sI805433385623568385
(dp3245
sI906590918307807232
(dp3246
g914
g1091
ssI70544738
(dp3247
I829789919744761856
g2349
sI37999041
g1329
sI497250434
g1020
sI9300262
g1200
sI48071844
g1818
sI21918310
g1486
sI20150502
g2121
sI24024778
g2434
sI5392522
g1029
sI16442379
g1858
sI2252422987
g2019
sI108698830
g2024
sI846137120209190912
g2660
sI31448660
g2331
sI13212502
g1702
sI898760444533288960
g2307
sI63262233
g2293
sg921
g1367
sI149180925
g1840
sI443215941
g969
ssI20150502
(dp3248
sI3152186729
(dp3249
sI172774762
(dp3250
g1025
g1674
ssI22203756
(dp3251
sI252104045
(dp3252
sI801244331487219712
(dp3253
g921
g1357
ssI810685395377725440
(dp3254
g941
g1429
ssI228535666
(dp3255
sI19834228
(dp3256
sI287624578
(dp3257
g1025
g1676
ssI800094690666131456
(dp3258
g921
g1366
ssI270839361
(dp3259
sI57335176
(dp3260
g1107
g2223
ssI22986121
(dp3261
g921
g1371
ssI890526296794685441
(dp3262
sI2238324110
(dp3263
I134194433
g2050
sI8442372
g1396
sI1228243574
g1496
sI595473415
g1854
sI99362794
g2654
sI57334102
g1245
sI7008972
g1552
sI386263630
g1469
sI3312810864
g1726
sI564173073
g1150
sI873261523
g1344
sI5625972
g1002
sI46476526
g2039
sI88621782
g1559
sI1878473497
g1601
sI19834228
g2134
sI50294938
g1033
sI24716475
g2010
sI359572266
g1638
sI615927039
g2249
ssI892152461082984449
(dp3264
g948
g2288
ssI809743447246733312
(dp3265
sI2168866206
(dp3266
g1107
g2236
ssI904929019136704512
(dp3267
g1011
g1756
ssI14366112
(dp3268
g953
g1862
ssI860070224820875265
(dp3269
g1001
g2145
ssI90348965
(dp3270
sI197567914
(dp3271
g936
g1160
ssI23158189
(dp3272
sI335287726
(dp3273
g956
g1188
ssI471672239
(dp3274
sI2881274440
(dp3275
g995
g1224
ssI292146610
(dp3276
g1001
g2154
ssI885743171845488641
(dp3277
g941
g1420
ssI75541946
(dp3278
sI79386044
(dp3279
g1025
g1673
ssI30313925
(dp3280
sI1345646022
(dp3281
sI93406669
(dp3282
sI8771022
(dp3283
sI630169165
(dp3284
sI1965255073
(dp3285
g945
g889
ssI3296742865
(dp3286
g1297
g1655
ssI554468819
(dp3287
sI900436451216830465
(dp3288
g948
g2275
ssI27966935
(dp3289
sI1029295578
(dp3290
sI19113435
(dp3291
sI805538910394785793
(dp3292
g1278
g1921
ssI828051573725134848
(dp3293
g995
g1222
ssI505083
(dp3294
sI231673318
(dp3295
sI18906599
(dp3296
g1025
g1675
ssI759871070136598528
(dp3297
g992
g2479
ssI4804296170
(dp3298
I149099539
g1878
sI103622347
g1956
sI55181796
g1380
sI52264741
g1569
sI1689702150
g1438
sI2508941658
g1269
sI1729822376
g2411
sI35171273
g1807
sI399358955
g1838
sI1548475308
g1791
sI3146359696
g1749
sI1345476306
g1108
sI5099091
g2241
sI444470743
g2648
sI554666554
g1455
sg903
g2368
sI852772124
g1734
sI2242922330
g2544
sI1832479814
g1931
sI501270879
g1273
ssI223671790
(dp3299
g1048
g1257
ssI15416816
(dp3300
g995
g1231
ssI5099091
(dp3301
sI1339835893
(dp3302
sI2763795958
(dp3303
g992
g2480
ssI276514295
(dp3304
sI615927039
(dp3305
sI4022842876
(dp3306
g945
g894
ssI2159138301
(dp3307
g921
g1374
ssI179043039
(dp3308
sI16340480
(dp3309
g1001
g2146
ssI906289871764963328
(dp3310
g1005
g1138
ssI292083207
(dp3311
sI171968009
(dp3312
sI14941706
(dp3313
sI3643403789
(dp3314
g995
g1229
ssI197731854
(dp3315
sI19373583
(dp3316
sI20490840
(dp3317
g1048
g1263
ssI90727790
(dp3318
g1107
g2226
ssI809920015298424832
(dp3319
g986
g1632
ssI357606935
(dp3320
I822215673812119553
g1784
sI970207298
g962
sI16264003
g1696
sI30313925
g2188
sI17171111
g2656
sI61636488
g2589
sI718519004
g1567
sI16113639
g2650
sI8771022
g2194
sI98554447
g1471
sI93673775
g2498
sI17891273
g2628
sI26322920
g2652
sI477667743
g1309
sI1339835893
g2244
sI108628599
g1498
sI223166587
g1009
sI20659868
g2402
sI117743669
g949
sI887878687
g1055
ssI63262233
(dp3321
sI22703645
(dp3322
sI627463714
(dp3323
g1048
g1249
ssI724924108400672769
(dp3324
sI219582726
(dp3325
sI124002304
(dp3326
sI3131448873
(dp3327
g992
g2473
ssI4366246647
(dp3328
g1278
g1911
ssI900073700178919425
(dp3329
g945
g883
ssI898760444533288960
(dp3330
g968
g2101
ssI906589963206184961
(dp3331
g1005
g1129
ssI740597986846203904
(dp3332
g1048
g1247
ssI197336641
(dp3333
g936
g1167
ssI18105922
(dp3334
sI18341444
(dp3335
sI77686342
(dp3336
sI833376066966167552
(dp3337
sI780186726228750336
(dp3338
g1048
g1264
ssI14067639
(dp3339
g1048
g1262
ssI17006157
(dp3340
sI545361165
(dp3341
sI231442000
(dp3342
sI2325495378
(dp3343
sI858940238273683456
(dp3344
g995
g1236
ssI31448660
(dp3345
sI864928799603011591
(dp3346
sI712240414166634496
(dp3347
sI4171431515
(dp3348
g1278
g1919
ssI418991709
(dp3349
g956
g1194
ssI4003911263
(dp3350
g945
g896
ssI942655830
(dp3351
g1001
g2156
ssI31080039
(dp3352
sI72568426
(dp3353
sI416647783
(dp3354
g1025
g1671
ssI196032110
(dp3355
sI77216701
(dp3356
g1025
g1687
ssI829789919744761856
(dp3357
g968
g2100
ssI705324658
(dp3358
sI2153016948
(dp3359
sI261371509
(dp3360
sI99868278
(dp3361
sI2176745083
(dp3362
I802392555807735808
g1059
sI830813993824636928
g2608
sI4643811147
g1467
sI19685572
g1061
sI548625029
g1510
sI2543408102
g1830
sI872075482384224257
g2453
sI96071944
g1126
sI231673318
g2214
sI299558731
g2530
sI2204463980
g1719
sI859543363606896641
g1613
sI606667727
g1809
sI1660862130
g2415
sI900031402845978627
g904
sI868637460
g1599
sI2247355933
g2003
sI16249213
g1293
sI14306430
g1969
sI849039681996165120
g1975
ssI1400555132
(dp3363
g945
g893
ssI519753341
(dp3364
g1297
g1658
ssI197676671
(dp3365
sI3245667971
(dp3366
g992
g2469
ssI906587112325238784
(dp3367
g948
g2278
ssI906578165648171008
(dp3368
g948
g2282
ssI446620951
(dp3369
g995
g1235
ssI249829698
(dp3370
g992
g2474
ssI256793538
(dp3371
sI1955597970
(dp3372
sI2884538307
(dp3373
sI4824813166
(dp3374
sI822844948433301504
(dp3375
g1048
g1261
ssI64003736
(dp3376
sI69675599
(dp3377
sI20659868
(dp3378
sI865721143369506816
(dp3379
g1297
g1647
ssI197717666
(dp3380
sI906482187284959233
(dp3381
g914
g1080
ssI299734693
(dp3382
sI1729822376
(dp3383
sI633992873
(dp3384
sI1660862130
(dp3385
g903
g2373
ssI2208812724
(dp3386
g1278
g1916
ssI3078420766
(dp3387
g945
g895
ssI257796800
(dp3388
sI2383492793
(dp3389
g992
g2482
ssI801959011247484928
(dp3390
sI197752508
(dp3391
g936
g1155
ssI117269671
(dp3392
g956
g1181
ssI866392710411948032
(dp3393
g945
g878
ssI886318841260802049
(dp3394
g941
g1431
ssI906590945742868482
(dp3395
g914
g1075
ssI3120443075
(dp3396
g948
g2286
ssI16378486
(dp3397
sI840943865133703168
(dp3398
g968
g2113
ssI24024778
(dp3399
sI826217983290769410
(dp3400
I747807250819981312
g1550
sI887063489625325572
g1014
sI1371618385
g1939
sI790728
g1067
sI2908510858
g1513
sI384951307
g965
sI1169637804
g1318
sI20880206
g1699
sg1011
g1753
sI25073877
g1087
sI19397942
g2074
sI34209496
g2443
sI1404590618
g1409
sI302593083
g1926
sI7587032
g2029
ssI698153378757660672
(dp3401
sI894352469744001024
(dp3402
g921
g1361
ssI1472026321
(dp3403
g992
g2476
ssI211037906
(dp3404
g986
g1625
ssI34209496
(dp3405
sI213698852
(dp3406
sI743071503642566657
(dp3407
g945
g892
ssI2388207329
(dp3408
g992
g2483
ssI39835363
(dp3409
g948
g2280
ssI974802661
(dp3410
g992
g2478
ssI124229352
(dp3411
sI872075482384224257
(dp3412
g903
g2365
ssI161715155
(dp3413
sI52009598
(dp3414
sI2305384189
(dp3415
sI906588826885173248
(dp3416
g914
g1074
ssI856473488659537920
(dp3417
g1001
g2144
ssI185374468
(dp3418
sI906590907608195072
(dp3419
g914
g1093
ssI882645123196231680
(dp3420
I801959011247484928
g2422
sI742042196803739649
g1897
sg995
g1226
sI1485733987
g993
sI130957956
g1508
sI972558726
g1198
sI1436549250
g1594
sI100827937
g1609
sI3152186729
g2123
sI44196397
g1447
sI19373583
g2267
sI755821622641254401
g1385
sI702739245195096065
g2539
sI791306523062497280
g2666
sI101331661
g1554
sI2174463928
g2616
sI2567908676
g2599
sI190404578
g2526
sI704505328956784641
g1952
sI2917670014
g1579
sI856646196378710017
g2093
ssI202258185
(dp3421
g956
g1180
ssI4910329610
(dp3422
sI151295755
(dp3423
sI173699375
(dp3424
sI20963090
(dp3425
g1278
g1914
ssI2894114580
(dp3426
sI813750042
(dp3427
g956
g1192
ssI93673775
(dp3428
sI57779998
(dp3429
sI64997151
(dp3430
g953
g1873
ssI3274699908
(dp3431
g1297
g1648
ssI906588853120720897
(dp3432
g1011
g1757
ssI1932851846
(dp3433
sI56561449
(dp3434
sI197812010
(dp3435
sI906588368108224512
(dp3436
g1011
g1751
ssI431413036
(dp3437
g956
g1182
ssI860137000686338048
(dp3438
g986
g1626
ssI3734732592
(dp3439
sI4905251806
(dp3440
sI773397580051017728
(dp3441
g1001
g2159
ssI279827082
(dp3442
sI2191169342
(dp3443
g1297
g1664
ssI3082022719
(dp3444
g941
g1427
ssI3441047360
(dp3445
sI190404578
(dp3446
sI20479813
(dp3447
sI299558731
(dp3448
g903
g2369
ssI24594252
(dp3449
g1107
g2225
ssI1300301
(dp3450
g968
g2111
ssI419918470
(dp3451
sI115414863
(dp3452
g1025
g1677
ssI9207632
(dp3453
sI702739245195096065
(dp3454
sI3417556319
(dp3455
g1297
g1662
ssI2872661847
(dp3456
g968
g2103
ssI2242922330
(dp3457
sI191889245
(dp3458
sI50476895
(dp3459
sI4121225056
(dp3460
sI2247018338
(dp3461
sI839177690544488449
(dp3462
g964
g2436
ssI197680102
(dp3463
g956
g1177
ssI50329448
(dp3464
sI322293052
(dp3465
sI757667003092140032
(dp3466
sI280860526
(dp3467
sI122339183
(dp3468
g936
g1163
ssI48927836
(dp3469
g1278
g1920
ssI180733809
(dp3470
sI121204594
(dp3471
sI33648499
(dp3472
sI128724853
(dp3473
g903
g2375
ssI1890938744
(dp3474
sI906591142527070208
(dp3475
g914
g1073
ssI275476458
(dp3476
sI906590318207881218
(dp3477
g1005
g1147
ssI858513720925978624
(dp3478
g992
g2467
ssI729676086632656900
(dp3479
sI21655428
(dp3480
sI118896517
(dp3481
g936
g1156
ssI906590421572186112
(dp3482
g1005
g1139
ssI58105735
(dp3483
sI61636488
(dp3484
sI171020169
(dp3485
g995
g1225
ssI21431618
(dp3486
sI211269614
(dp3487
sI884677621547757568
(dp3488
g1048
g1252
ssI66467735
(dp3489
g968
g2117
ssI1587890072
(dp3490
g986
g1631
ssI2567908676
(dp3491
sI891796727791005697
(dp3492
g921
g1362
ssI721519833561477120
(dp3493
g956
g1175
ssI705488139091972096
(dp3494
g945
g890
ssI906586306834132993
(dp3495
g948
g2276
ssI47032231
(dp3496
sI901767932304392192
(dp3497
g903
g2360
ssI830813993824636928
(dp3498
g903
g2374
ssI94195631
(dp3499
g903
g2372
ssI2590257072
(dp3500
g1048
g1258
ssI236631986
(dp3501
g936
g1165
ssI112621492
(dp3502
g968
g2115
ssI216776631
(dp3503
sI2174463928
(dp3504
sI878604381050032129
(dp3505
g968
g2106
ssI906587359768203266
(dp3506
g1011
g1759
ssI587191730
(dp3507
sI18442178
(dp3508
g1005
g1130
ssI735275750505340928
(dp3509
sI606211203
(dp3510
sI897368871669084160
(dp3511
g1001
g2161
ssI17891273
(dp3512
sI2717044682
(dp3513
g1048
g1254
ssI613398477
(dp3514
sI322953166
(dp3515
sI21878736
(dp3516
g986
g1627
ssI157638614
(dp3517
g1107
g2231
ssI286261212
(dp3518
g1025
g1686
ssI91285471
(dp3519
sI55570400
(dp3520
sI21954529
(dp3521
sI2457429986
(dp3522
g921
g1375
ssI800707492346925056
(dp3523
sI49879012
(dp3524
g1025
g1684
ssI444470743
(dp3525
sI16113639
(dp3526
sI26322920
(dp3527
sI99362794
(dp3528
sI17171111
(dp3529
sI905742450274082816
(dp3530
g1048
g1248
ssI906124632155181056
(dp3531
g921
g1356
ssI846137120209190912
(dp3532
sI64397992
(dp3533
sI5402612
(dp3534
sI791306523062497280
(dp3535
sI1087440553
(dp3536
g1297
g1651
sssb.