ccopy_reg
_reconstructor
p1
(cnetworkx.classes.digraph
DiGraph
p2
c__builtin__
object
p3
NtRp4
(dp5
S'node'
p6
(dp7
I885393827103727616
(dp8
S'degree'
p9
I41
sS'betweenness_centrality'
p10
F0.0011086444486558193
ssI842714107178450944
(dp11
g9
I1
sg10
F0
ssI906590439578460162
(dp12
g9
I1
sg10
F0
ssI900031402845978627
(dp13
g9
I1
sg10
F0
ssI885697397564866564
(dp14
g9
I1
sg10
F0
ssI906587332157026309
(dp15
g9
I1
sg10
F0
ssI796902352963764224
(dp16
g9
I1
sg10
F0
ssI906586171278585857
(dp17
g9
I7
sg10
F0
ssI2675288072
(dp18
g9
I1
sg10
F0
ssI890891
(dp19
sI266420236
(dp20
g9
I1
sg10
F0
ssI901941258318479362
(dp21
g9
I1
sg10
F0
ssI40814607
(dp22
sI906589926510260225
(dp23
g9
I1
sg10
F0
ssI30838787
(dp24
sI20733972
(dp25
g9
I1
sg10
F0
ssI906590003328937984
(dp26
g9
I1
sg10
F0
ssI14075928
(dp27
g9
I1
sg10
F0
ssI2990729241
(dp28
g9
I1
sg10
F0
ssI106762266
(dp29
g9
I1
sg10
F0
ssI898345680623857665
(dp30
sI191450458
(dp31
g9
I1
sg10
F0
ssI817873519954587653
(dp32
g9
I1
sg10
F0
ssI976900128
(dp33
g9
I1
sg10
F0
ssI3457675883
(dp34
g9
I1
sg10
F0
ssI823367015830323201
(dp35
g9
I1
sg10
F0
ssI906589922886373382
(dp36
g9
I1
sg10
F0
ssI108648487
(dp37
g9
I2
sg10
F0
ssI14850088
(dp38
g9
I1
sg10
F0
ssI767995186605686784
(dp39
sI906589970009346055
(dp40
g9
I2
sg10
F0
ssI365939318
(dp41
g9
I1
sg10
F0
ssI473960496
(dp42
sI3135860744
(dp43
sI23186079
(dp44
sI906583132551487490
(dp45
g9
I1
sg10
F0
ssI214409268
(dp46
g9
I1
sg10
F0
ssI117743669
(dp47
g9
I1
sg10
F0
ssI40814647
(dp48
sI197545311
(dp49
g9
I1
sg10
F0
ssI10729532
(dp50
g9
I1
sg10
F0
ssI197810238
(dp51
g9
I1
sg10
F0
ssI40814261
(dp52
sI61440064
(dp53
g9
I1
sg10
F0
ssI3283517792
(dp54
g9
I1
sg10
F0
ssI970207298
(dp55
g9
I1
sg10
F0
ssI384951307
(dp56
g9
I1
sg10
F0
ssI2212489284
(dp57
g9
I1
sg10
F0
ssI443215941
(dp58
g9
I1
sg10
F0
ssI8824902
(dp59
sI765515105576550400
(dp60
g9
I1
sg10
F0
ssI81947660
(dp61
sI40814667
(dp62
sI738894256593502208
(dp63
g9
I1
sg10
F0
ssI2289143886
(dp64
sI48304141
(dp65
g9
I1
sg10
F0
ssI403720013
(dp66
sI29995782
(dp67
g9
I1
sg10
F0
ssI1691574356
(dp68
g9
I1
sg10
F0
ssI4827631701
(dp69
g9
I1
sg10
F0
ssI731342744157741056
(dp70
g9
I1
sg10
F0
ssI2214869083
(dp71
g9
I1
sg10
F0
ssI49049693
(dp72
g9
I1
sg10
F0
ssI2461252965
(dp73
sI433741920
(dp74
g9
I1
sg10
F0
ssI429857924
(dp75
g9
I2
sg10
F0
ssI1485733987
(dp76
g9
I1
sg10
F0
ssI1221025892
(dp77
g9
I1
sg10
F0
ssI27058391
(dp78
sI16498705
(dp79
sI784401549778911232
(dp80
g9
I1
sg10
F0
ssI19837528
(dp81
sI2772648048
(dp82
g9
I1
sg10
F0
ssI98314354
(dp83
g9
I1
sg10
F0
ssI575663123
(dp84
sI5625972
(dp85
g9
I1
sg10
F0
ssI4916410486
(dp86
g9
I1
sg10
F0
ssI2750877815
(dp87
g9
I1
sg10
F0
ssI891384910921048064
(dp88
sI1243555962
(dp89
g9
I1
sg10
F0
ssI223166587
(dp90
g9
I1
sg10
F0
ssI48906364
(dp91
g9
I1
sg10
F0
ssI887063489625325572
(dp92
g9
I1
sg10
F0
ssI14669951
(dp93
g9
I1
sg10
F0
ssI3064789121
(dp94
g9
I1
sg10
F0
ssI497250434
(dp95
g9
I2
sg10
F0
ssI3486152835
(dp96
g9
I2
sg10
F0
ssI2719944836
(dp97
g9
I1
sg10
F0
ssI235261974
(dp98
g9
I1
sg10
F0
ssI906590151605751808
(dp99
g9
I1
sg10
F0
ssI7120992
(dp100
sI5392522
(dp101
g9
I1
sg10
F0
ssI898059854006308864
(dp102
sI108910732
(dp103
sI5695632
(dp104
sI79293791
(dp105
sI20316308
(dp106
g9
I1
sg10
F0
ssI3267350677
(dp107
g9
I1
sg10
F0
ssI40815581
(dp108
sI50294938
(dp109
g9
I1
sg10
F0
ssI40814747
(dp110
sI28113052
(dp111
g9
I1
sg10
F0
ssI1532061
(dp112
g9
I1
sg10
F0
ssI34507480
(dp113
sI4615888755
(dp114
sI198858461
(dp115
sI342599843
(dp116
g9
I1
sg10
F0
ssI816298918468259841
(dp117
g9
I1
sg10
F0
ssI4025225381
(dp118
g9
I1
sg10
F0
ssI82613214
(dp119
sI812376663560519680
(dp120
g9
I1
sg10
F0
ssI80361644
(dp121
g9
I1
sg10
F0
ssI2397625714
(dp122
sI143024790
(dp123
g9
I1
sg10
F0
ssI394465457
(dp124
g9
I1
sg10
F0
ssI1915534530
(dp125
sI16548023
(dp126
g9
I1
sg10
F0
ssI813749727170793473
(dp127
g9
I1
sg10
F0
ssI1016021178
(dp128
sI887878687
(dp129
g9
I1
sg10
F0
ssI212113098
(dp130
sI838672863716589568
(dp131
g9
I1
sg10
F0
ssI802392555807735808
(dp132
g9
I2
sg10
F0
ssI19685572
(dp133
g9
I2
sg10
F0
ssI3353579894
(dp134
g9
I1
sg10
F0
ssI994511047
(dp135
g9
I1
sg10
F0
ssI790728
(dp136
g9
I2
sg10
F0
ssI859885856752107520
(dp137
sI704482666955976704
(dp138
g9
I1
sg10
F0
ssI14989516
(dp139
g9
I1
sg10
F0
ssI2564370638
(dp140
sI234904269
(dp141
sI376967376
(dp142
g9
I1
sg10
F0
ssI25073877
(dp143
g9
I41
sg10
F0.0005956087392045916
ssI906588395492794368
(dp144
g9
I1
sg10
F0
ssI245802517
(dp145
sI3026603044
(dp146
sI1369596122
(dp147
sI68522205
(dp148
g9
I1
sg10
F0
ssI2441736416
(dp149
sI247423201
(dp150
sI723525858
(dp151
sI240664803
(dp152
g9
I2
sg10
F0
ssI4611184641
(dp153
sI813286
(dp154
g9
I1
sg10
F0
ssI896980623809818624
(dp155
g9
I1
sg10
F0
ssI21332200
(dp156
g9
I1
sg10
F0
ssI139092348
(dp157
g9
I1
sg10
F0
ssI120004844
(dp158
sI1345476306
(dp159
g9
I1
sg10
F0
ssI855999418411208704
(dp160
g9
I1
sg10
F0
ssI381868271
(dp161
g9
I1
sg10
F0
ssI22425840
(dp162
g9
I1
sg10
F0
ssI40814683
(dp163
sI837883810356334593
(dp164
g9
I1
sg10
F0
ssI197624060
(dp165
g9
I1
sg10
F0
ssI737233125361750016
(dp166
sI150317310
(dp167
g9
I1
sg10
F0
ssI434829567
(dp168
g9
I1
sg10
F0
ssI197742170
(dp169
g9
I1
sg10
F0
ssI762396950339747840
(dp170
g9
I1
sg10
F0
ssI720293443260456960
(dp171
g9
I1
sg10
F0
ssI417650980
(dp172
g9
I1
sg10
F0
ssI96071944
(dp173
g9
I2
sg10
F0
ssI29442313
(dp174
g9
I40
sg10
F0.00056853561469529196
ssI14206795
(dp175
g9
I1
sg10
F0
ssI14362891
(dp176
sI564173073
(dp177
g9
I1
sg10
F0
ssI14749971
(dp178
g9
I1
sg10
F0
ssI40814871
(dp179
sI92428568
(dp180
sI197574940
(dp181
g9
I40
sg10
F0.002758751387497631
ssI892404605983870977
(dp182
sI197660958
(dp183
g9
I41
sg10
F0.0011072907924303543
ssI191004170
(dp184
sI814231264765026305
(dp185
g9
I1
sg10
F0
ssI972558726
(dp186
g9
I1
sg10
F0
ssI9300262
(dp187
g9
I1
sg10
F0
ssI906582360405278720
(dp188
g9
I20
sg10
F0
ssI3398633772
(dp189
g9
I1
sg10
F0
ssI1250322734
(dp190
sI197634351
(dp191
g9
I1
sg10
F0
ssI26102066
(dp192
g9
I1
sg10
F0
ssI468640052
(dp193
g9
I1
sg10
F0
ssI197570872
(dp194
g9
I1
sg10
F0
ssI11348282
(dp195
g9
I1
sg10
F0
ssI307423967
(dp196
g9
I1
sg10
F0
ssI40815039
(dp197
sI355367229
(dp198
g9
I1
sg10
F0
ssI741293278658592768
(dp199
sI388677953
(dp200
g9
I1
sg10
F0
ssI46541122
(dp201
g9
I41
sg10
F0.0028643365730838992
ssI827078814555578369
(dp202
sI33667397
(dp203
g9
I1
sg10
F0
ssI594874694
(dp204
g9
I1
sg10
F0
ssI48996679
(dp205
g9
I1
sg10
F0
ssI2257558088
(dp206
g9
I1
sg10
F0
ssI4448844105
(dp207
sI906133598553681920
(dp208
g9
I1
sg10
F0
ssI2198878544
(dp209
g9
I1
sg10
F0
ssI1627820371
(dp210
sI57334102
(dp211
g9
I1
sg10
F0
ssI55064920
(dp212
g9
I41
sg10
F0.0010944310582884371
ssI82071897
(dp213
g9
I1
sg10
F0
ssI2508941658
(dp214
g9
I1
sg10
F0
ssI4871584091
(dp215
g9
I1
sg10
F0
ssI30358586
(dp216
g9
I1
sg10
F0
ssI533029214
(dp217
sI501270879
(dp218
g9
I1
sg10
F0
ssI65069408
(dp219
g9
I1
sg10
F0
ssI906583761285996544
(dp220
g9
I1
sg10
F0
ssI3146115426
(dp221
g9
I1
sg10
F0
ssI1020058453
(dp222
sI95674729
(dp223
sI104063340
(dp224
g9
I1
sg10
F0
ssI905180324937785345
(dp225
g9
I1
sg10
F0
ssI906588868471902208
(dp226
g9
I1
sg10
F0
ssI787772328398692352
(dp227
g9
I1
sg10
F0
ssI637196658
(dp228
g9
I1
sg10
F0
ssI751110996559814657
(dp229
sI211648886
(dp230
g9
I1
sg10
F0
ssI107037417
(dp231
g9
I1
sg10
F0
ssI267338104
(dp232
g9
I1
sg10
F0
ssI30663036
(dp233
g9
I1
sg10
F0
ssI16249213
(dp234
g9
I1
sg10
F0
ssI43139414
(dp235
sI2155579778
(dp236
g9
I1
sg10
F0
ssI804942511718461440
(dp237
sI40814453
(dp238
sI828347623098560512
(dp239
g9
I1
sg10
F0
ssI101132353
(dp240
sI217749896
(dp241
g9
I1
sg10
F0
ssI3213163534
(dp242
sI864470444245757952
(dp243
g9
I1
sg10
F0
ssI40814989
(dp244
sI208232847
(dp245
g9
I1
sg10
F0
ssI110365072
(dp246
sI92449170
(dp247
g9
I1
sg10
F0
ssI785044227474485252
(dp248
sI479863188
(dp249
g9
I1
sg10
F0
ssI30364057
(dp250
g9
I1
sg10
F0
ssI114644300
(dp251
sI846380717349240833
(dp252
g9
I1
sg10
F0
ssI40814319
(dp253
sI477667743
(dp254
g9
I1
sg10
F0
ssI1001048480
(dp255
g9
I1
sg10
F0
ssI222726561
(dp256
g9
I1
sg10
F0
ssI387996066
(dp257
sI182755747
(dp258
sI779613876228730881
(dp259
g9
I1
sg10
F0
ssI890502325474865152
(dp260
g9
I1
sg10
F0
ssI808025618239475712
(dp261
sI89506218
(dp262
sI124963911
(dp263
g9
I1
sg10
F0
ssI1169637804
(dp264
g9
I1
sg10
F0
ssI365763314
(dp265
sI474293689
(dp266
sI812462389991854080
(dp267
g9
I1
sg10
F0
ssI471287735
(dp268
g9
I1
sg10
F0
ssI2843515318
(dp269
g9
I1
sg10
F0
ssI3882117561
(dp270
g9
I1
sg10
F0
ssI570522042
(dp271
sI3236360620
(dp272
sI128148127
(dp273
g9
I1
sg10
F0
ssI15950269
(dp274
sI197589439
(dp275
g9
I1
sg10
F0
ssI37999041
(dp276
g9
I1
sg10
F0
ssI1306925508
(dp277
g9
I1
sg10
F0
ssI3247776197
(dp278
g9
I1
sg10
F0
ssI2250760609
(dp279
g9
I3
sg10
F0
ssI716510667243651072
(dp280
g9
I1
sg10
F0
ssI416676471
(dp281
g9
I1
sg10
F0
ssI85772748
(dp282
g9
I1
sg10
F0
ssI185510351
(dp283
g9
I1
sg10
F0
ssI192862672
(dp284
g9
I1
sg10
F0
ssI1461170642
(dp285
g9
I1
sg10
F0
ssI873261523
(dp286
g9
I1
sg10
F0
ssI736763562530471937
(dp287
g9
I2
sg10
F0
ssI15933910
(dp288
g9
I1
sg10
F0
ssI4782551
(dp289
g9
I1
sg10
F0
ssI254337496
(dp290
g9
I1
sg10
F0
ssI118115748
(dp291
g9
I1
sg10
F0
ssI963637723
(dp292
g9
I1
sg10
F0
ssI104673756
(dp293
g9
I40
sg10
F0.0021387768362346698
ssI588200416
(dp294
g9
I1
sg10
F0
ssI906590655278919681
(dp295
g9
I1
sg10
F0
ssI80417598
(dp296
sI55181796
(dp297
g9
I1
sg10
F0
ssI165549137
(dp298
g9
I1
sg10
F0
ssI147335250
(dp299
g9
I1
sg10
F0
ssI811229675758505984
(dp300
sI755821622641254401
(dp301
g9
I1
sg10
F0
ssI187881969
(dp302
g9
I1
sg10
F0
ssI285846002
(dp303
sI1261451576
(dp304
sI202287605
(dp305
sI622097143
(dp306
sI750317076112375808
(dp307
sI214017108
(dp308
sI13134332
(dp309
sI325890557
(dp310
g9
I1
sg10
F0
ssI56769022
(dp311
g9
I1
sg10
F0
ssI893765510285983744
(dp312
g9
I1
sg10
F0
ssI549925200
(dp313
g9
I1
sg10
F0
ssI359340545
(dp314
g9
I1
sg10
F0
ssI518439339
(dp315
sI8442372
(dp316
g9
I1
sg10
F0
ssI44998279
(dp317
g9
I1
sg10
F0
ssI906588016004579328
(dp318
g9
I1
sg10
F0
ssI197726728
(dp319
g9
I1
sg10
F0
ssI9376172
(dp320
g9
I1
sg10
F0
ssI56443153
(dp321
sI901821863411810304
(dp322
sI2284427792
(dp323
sI563946002
(dp324
sI197553874
(dp325
g9
I1
sg10
F0
ssI55835157
(dp326
g9
I1
sg10
F0
ssI277948950
(dp327
g9
I1
sg10
F0
ssI2181560068
(dp328
g9
I1
sg10
F0
ssI1404590618
(dp329
g9
I2
sg10
F0
ssI182837791
(dp330
g9
I1
sg10
F0
ssI857543865724809217
(dp331
g9
I1
sg10
F0
ssI4833544738
(dp332
g9
I1
sg10
F0
ssI189293091
(dp333
g9
I2
sg10
F0
ssI838142099035996161
(dp334
g9
I40
sg10
F0.0010673579337791375
ssI1689702150
(dp335
g9
I1
sg10
F0
ssI2840744001
(dp336
sI906590687491006464
(dp337
g9
I2
sg10
F0
ssI1322416681
(dp338
g9
I1
sg10
F0
ssI19697415
(dp339
g9
I1
sg10
F0
ssI475802156
(dp340
g9
I1
sg10
F0
ssI44196397
(dp341
g9
I2
sg10
F0
ssI16399908
(dp342
g9
I1
sg10
F0
ssI374481331
(dp343
g9
I1
sg10
F0
ssI84289378
(dp344
sI15350325
(dp345
sI15143478
(dp346
g9
I1
sg10
F0
ssI1924071992
(dp347
g9
I1
sg10
F0
ssI554666554
(dp348
g9
I1
sg10
F0
ssI3297575484
(dp349
g9
I1
sg10
F0
ssI77316669
(dp350
g9
I1
sg10
F0
ssI2191403582
(dp351
sI78010944
(dp352
sI5815392
(dp353
g9
I1
sg10
F0
ssI791408342732189696
(dp354
sI3340073541
(dp355
g9
I1
sg10
F0
ssI38617670
(dp356
g9
I1
sg10
F0
ssI2697757255
(dp357
g9
I1
sg10
F0
ssI1646934600
(dp358
g9
I1
sg10
F0
ssI3345533513
(dp359
sI4643811147
(dp360
g9
I1
sg10
F0
ssI16171595
(dp361
sI255388236
(dp362
sI386263630
(dp363
g9
I1
sg10
F0
ssI98554447
(dp364
g9
I1
sg10
F0
ssI109998675
(dp365
g9
I1
sg10
F0
ssI52120149
(dp366
g9
I4
sg10
F0.0015350461596772883
ssI2768703929
(dp367
g9
I1
sg10
F0
ssI1521687128
(dp368
g9
I1
sg10
F0
ssI143303257
(dp369
g9
I1
sg10
F0
ssI545561179
(dp370
g9
I1
sg10
F0
ssI1513638493
(dp371
sI90098789
(dp372
sI22667872
(dp373
sI197517921
(dp374
g9
I1
sg10
F0
ssI822376728723070976
(dp375
g9
I1
sg10
F0
ssI97522487
(dp376
sI1908105828
(dp377
g9
I1
sg10
F0
ssI21918310
(dp378
g9
I1
sg10
F0
ssI891081498790703104
(dp379
g9
I1
sg10
F0
ssI19397785
(dp380
sI755733097
(dp381
g9
I1
sg10
F0
ssI40962624
(dp382
sI376077163
(dp383
g9
I1
sg10
F0
ssI197507697
(dp384
g9
I1
sg10
F0
ssI61352185
(dp385
sI906585619983454208
(dp386
g9
I1
sg10
F0
ssI81801844
(dp387
g9
I1
sg10
F0
ssI817788623361863680
(dp388
sI1228243574
(dp389
g9
I1
sg10
F0
ssI108628599
(dp390
g9
I1
sg10
F0
ssI794874367587057665
(dp391
sI53338746
(dp392
g9
I1
sg10
F0
ssI255982015
(dp393
g9
I1
sg10
F0
ssI302473852
(dp394
sI51879018
(dp395
g9
I1
sg10
F0
ssI799714384096280580
(dp396
g9
I1
sg10
F0
ssI779956501754605568
(dp397
g9
I1
sg10
F0
ssI793738137138847744
(dp398
sI191656579
(dp399
g9
I1
sg10
F0
ssI130957956
(dp400
g9
I1
sg10
F0
ssI548625029
(dp401
g9
I2
sg10
F0
ssI899192137845264384
(dp402
g9
I1
sg10
F0
ssI297996937
(dp403
sI2908510858
(dp404
g9
I1
sg10
F0
ssI1628404363
(dp405
sI2806112911
(dp406
g9
I1
sg10
F0
ssI16278864
(dp407
sI410282644
(dp408
g9
I1
sg10
F0
ssI20109973
(dp409
g9
I1
sg10
F0
ssI58503830
(dp410
g9
I1
sg10
F0
ssI37413528
(dp411
g9
I1
sg10
F0
ssI904066506346123264
(dp412
sI1962661579
(dp413
g9
I1
sg10
F0
ssI76038813
(dp414
sI196168350
(dp415
g9
I1
sg10
F0
ssI712602271
(dp416
g9
I1
sg10
F0
ssI1453960987
(dp417
g9
I1
sg10
F0
ssI808694770835083265
(dp418
g9
I1
sg10
F0
ssI906589376746008576
(dp419
g9
I1
sg10
F0
ssI753136193190109184
(dp420
g9
I1
sg10
F0
ssI2888956584
(dp421
g9
I1
sg10
F0
ssI210428700
(dp422
g9
I1
sg10
F0
ssI866340866738323456
(dp423
g9
I1
sg10
F0
ssI1636590253
(dp424
g9
I1
sg10
F0
ssI873917041048256512
(dp425
g9
I1
sg10
F0
ssI262439605
(dp426
g9
I1
sg10
F0
ssI858794683
(dp427
g9
I1
sg10
F0
ssI1694939840
(dp428
g9
I1
sg10
F0
ssI243563201
(dp429
g9
I1
sg10
F0
ssI828028274047668226
(dp430
g9
I1
sg10
F0
ssI15334083
(dp431
sI98294468
(dp432
sI3150179013
(dp433
g9
I1
sg10
F0
ssI3437747915
(dp434
g9
I1
sg10
F0
ssI18879176
(dp435
sI248699593
(dp436
g9
I1
sg10
F0
ssI747807250819981312
(dp437
g9
I1
sg10
F0
ssI7008972
(dp438
g9
I1
sg10
F0
ssI101331661
(dp439
g9
I1
sg10
F0
ssI863291154556624896
(dp440
g9
I2
sg10
F0
ssI317164240
(dp441
sI45363552
(dp442
g9
I1
sg10
F0
ssI16578138
(dp443
sI88621782
(dp444
g9
I1
sg10
F0
ssI2794535639
(dp445
g9
I1
sg10
F0
ssI41634520
(dp446
g9
I1
sg10
F0
ssI80366372
(dp447
g9
I1
sg10
F0
ssI906590875853058048
(dp448
g9
I1
sg10
F0
ssI718519004
(dp449
g9
I1
sg10
F0
ssI52264741
(dp450
g9
I1
sg10
F0
ssI126595195
(dp451
sI2903979971
(dp452
g9
I1
sg10
F0
ssI4704895717
(dp453
g9
I1
sg10
F0
ssI740825976213491712
(dp454
sI712557069824630784
(dp455
sI349022952
(dp456
g9
I1
sg10
F0
ssI17226473
(dp457
g9
I1
sg10
F0
ssI824640611441606658
(dp458
sI953959148
(dp459
sI2403937010
(dp460
g9
I1
sg10
F0
ssI759251
(dp461
sI1258075795
(dp462
sI2917670014
(dp463
g9
I1
sg10
F0
ssI374258422
(dp464
g9
I1
sg10
F0
ssI43680503
(dp465
g9
I1
sg10
F0
ssI1330457336
(dp466
sI517675769
(dp467
sI260842234
(dp468
g9
I1
sg10
F0
ssI197638271
(dp469
g9
I1
sg10
F0
ssI14758654
(dp470
sI859659008
(dp471
g9
I1
sg10
F0
ssI883592400752566272
(dp472
g9
I1
sg10
F0
ssI18253611
(dp473
sI906590850985058304
(dp474
g9
I1
sg10
F0
ssI233149192
(dp475
g9
I1
sg10
F0
ssI854552997707337729
(dp476
sI271475466
(dp477
g9
I1
sg10
F0
ssI106837463
(dp478
g9
I1
sg10
F0
ssI1436549250
(dp479
g9
I1
sg10
F0
ssI10263312
(dp480
sI146522898
(dp481
g9
I1
sg10
F0
ssI113130259
(dp482
g9
I1
sg10
F0
ssI868637460
(dp483
g9
I1
sg10
F0
ssI1878473497
(dp484
g9
I1
sg10
F0
ssI865334042
(dp485
g9
I1
sg10
F0
ssI12044602
(dp486
sI4830585628
(dp487
g9
I2
sg10
F0
ssI705780698788073472
(dp488
g9
I1
sg10
F0
ssI4002649757
(dp489
sI100827937
(dp490
g9
I1
sg10
F0
ssI994338883
(dp491
sI35001979
(dp492
g9
I1
sg10
F0
ssI859543363606896641
(dp493
g9
I1
sg10
F0
ssI607651974
(dp494
g9
I1
sg10
F0
ssI87823144
(dp495
g9
I40
sg10
F0.0010829249803719846
ssI861745475908775936
(dp496
g9
I1
sg10
F0
ssI359572266
(dp497
g9
I1
sg10
F0
ssI863044429615169536
(dp498
g9
I1
sg10
F0
ssI49535791
(dp499
g9
I1
sg10
F0
ssI3755478314
(dp500
sI2382904118
(dp501
g9
I1
sg10
F0
ssI35430180
(dp502
g9
I1
sg10
F0
ssI1926683448
(dp503
g9
I40
sg10
F0.0010788640116955897
ssI2331859771
(dp504
g9
I1
sg10
F0
ssI513053500
(dp505
sI118663997
(dp506
g9
I41
sg10
F0.0011086444486558193
ssI2542375742
(dp507
g9
I1
sg10
F0
ssI135439167
(dp508
g9
I1
sg10
F0
ssI165204800
(dp509
g9
I1
sg10
F0
ssI29471554
(dp510
g9
I1
sg10
F0
ssI16264003
(dp511
g9
I1
sg10
F0
ssI3013145413
(dp512
g9
I1
sg10
F0
ssI4005088055
(dp513
sI32774989
(dp514
sI20880206
(dp515
g9
I1
sg10
F0
ssI11799232
(dp516
sI228621136
(dp517
g9
I1
sg10
F0
ssI40815441
(dp518
sI785460842955313154
(dp519
sI13212502
(dp520
g9
I1
sg10
F0
ssI784786703923970049
(dp521
sI1969984345
(dp522
g9
I1
sg10
F0
ssI16206682
(dp523
g9
I1
sg10
F0
ssI751721055031586816
(dp524
g9
I1
sg10
F0
ssI4881298269
(dp525
sI147409758
(dp526
g9
I1
sg10
F0
ssI906588962977931264
(dp527
g9
I1
sg10
F0
ssI273269602
(dp528
g9
I2
sg10
F0
ssI435757008
(dp529
sI1667921821
(dp530
sI50393960
(dp531
g9
I1
sg10
F0
ssI244376426
(dp532
g9
I1
sg10
F0
ssI49740651
(dp533
g9
I1
sg10
F0
ssI2204463980
(dp534
g9
I2
sg10
F0
ssI197687975
(dp535
g9
I1
sg10
F0
ssI890281627540213760
(dp536
g9
I1
sg10
F0
ssI197498685
(dp537
g9
I1
sg10
F0
ssI3312810864
(dp538
g9
I1
sg10
F0
ssI30684018
(dp539
g9
I1
sg10
F0
ssI2277106547
(dp540
g9
I1
sg10
F0
ssI831210356
(dp541
g9
I1
sg10
F0
ssI3380173685
(dp542
g9
I1
sg10
F0
ssI852772124
(dp543
g9
I1
sg10
F0
ssI708556257041354752
(dp544
sI1090378620
(dp545
sI2269066730
(dp546
g9
I1
sg10
F0
ssI479826814
(dp547
g9
I1
sg10
F0
ssI2452872000
(dp548
sI889211931202117632
(dp549
g9
I1
sg10
F0
ssI69421956
(dp550
sI906590224695914496
(dp551
g9
I1
sg10
F0
ssI18944903
(dp552
sI47455112
(dp553
g9
I1
sg10
F0
ssI1092006794
(dp554
g9
I1
sg10
F0
ssI75744139
(dp555
sI119016332
(dp556
g9
I1
sg10
F0
ssI81730445
(dp557
sI628237198
(dp558
g9
I1
sg10
F0
ssI906590617119080448
(dp559
g9
I1
sg10
F0
ssI3146359696
(dp560
g9
I2
sg10
F0
ssI47813521
(dp561
g9
I38
sg10
F0.00050626742832390284
ssI2293549970
(dp562
g9
I1
sg10
F0
ssI128052116
(dp563
g9
I1
sg10
F0
ssI364891289
(dp564
sI80077721
(dp565
g9
I1
sg10
F0
ssI60865434
(dp566
g9
I1
sg10
F0
ssI40815515
(dp567
sI158698396
(dp568
sI2164583325
(dp569
g9
I1
sg10
F0
ssI1522620229
(dp570
g9
I1
sg10
F0
ssI748856604045389824
(dp571
sI3087727522
(dp572
g9
I1
sg10
F0
ssI822215673812119553
(dp573
g9
I2
sg10
F0
ssI329519267
(dp574
g9
I1
sg10
F0
ssI48878503
(dp575
g9
I1
sg10
F0
ssI47034524
(dp576
g9
I1
sg10
F0
ssI1548475308
(dp577
g9
I1
sg10
F0
ssI1626421878
(dp578
g9
I1
sg10
F0
ssI1333509038
(dp579
g9
I1
sg10
F0
ssI16896157
(dp580
sI117605296
(dp581
g9
I1
sg10
F0
ssI57582514
(dp582
g9
I1
sg10
F0
ssI4447527859
(dp583
g9
I1
sg10
F0
ssI2580110263
(dp584
g9
I1
sg10
F0
ssI1267375032
(dp585
sI29731772
(dp586
sI119360445
(dp587
g9
I1
sg10
F0
ssI45794805
(dp588
sI149726145
(dp589
sI906587332031246338
(dp590
g9
I1
sg10
F0
ssI788983419199852544
(dp591
g9
I1
sg10
F0
ssI245963716
(dp592
g9
I1
sg10
F0
ssI40815777
(dp593
sI35171273
(dp594
g9
I1
sg10
F0
ssI40815563
(dp595
sI155659213
(dp596
sI606667727
(dp597
g9
I1
sg10
F0
ssI40815253
(dp598
sI34743251
(dp599
g9
I1
sg10
F0
ssI398660294
(dp600
sI3270699990
(dp601
g9
I1
sg10
F0
ssI19319767
(dp602
g9
I1
sg10
F0
ssI46123992
(dp603
g9
I1
sg10
F0
ssI48071844
(dp604
g9
I3
sg10
F0
ssI380814299
(dp605
g9
I1
sg10
F0
ssI18549724
(dp606
g9
I1
sg10
F0
ssI567989213
(dp607
g9
I1
sg10
F0
ssI402957663
(dp608
g9
I1
sg10
F0
ssI1873312735
(dp609
g9
I1
sg10
F0
ssI33502178
(dp610
g9
I1
sg10
F0
ssI801897909725917184
(dp611
sI3183850469
(dp612
sI2543408102
(dp613
g9
I2
sg10
F0
ssI3562471
(dp614
g9
I1
sg10
F0
ssI18691048
(dp615
g9
I1
sg10
F0
ssI40815593
(dp616
sI42738666
(dp617
g9
I1
sg10
F0
ssI399358955
(dp618
g9
I1
sg10
F0
ssI87401598
(dp619
sI812420862272032768
(dp620
sI149180925
(dp621
g9
I1
sg10
F0
ssI840449932108558336
(dp622
sI30944245
(dp623
sI230691836
(dp624
g9
I1
sg10
F0
ssI4708866923
(dp625
g9
I1
sg10
F0
ssI23346175
(dp626
g9
I1
sg10
F0
ssI40815617
(dp627
sI16303106
(dp628
g9
I1
sg10
F0
ssI187119787
(dp629
g9
I1
sg10
F0
ssI287482885
(dp630
g9
I1
sg10
F0
ssI906584587815583744
(dp631
g9
I1
sg10
F0
ssI595473415
(dp632
g9
I1
sg10
F0
ssI115364872
(dp633
g9
I1
sg10
F0
ssI16442379
(dp634
g9
I1
sg10
F0
ssI396645388
(dp635
g9
I1
sg10
F0
ssI40815629
(dp636
g9
I17
sg10
F0.00036413352465007983
ssI803685165851615232
(dp637
g9
I1
sg10
F0
ssI17001490
(dp638
g9
I1
sg10
F0
ssI149099539
(dp639
g9
I1
sg10
F0
ssI43874512
(dp640
sI906587274858692608
(dp641
g9
I1
sg10
F0
ssI879451342372302848
(dp642
g9
I1
sg10
F0
ssI2880685079
(dp643
g9
I1
sg10
F0
ssI31040536
(dp644
g9
I1
sg10
F0
ssI53480473
(dp645
sI22684698
(dp646
sI259904541
(dp647
g9
I1
sg10
F0
ssI57396255
(dp648
g9
I1
sg10
F0
ssI1323549008
(dp649
sI149367842
(dp650
sI906587334501695489
(dp651
g9
I1
sg10
F0
ssI2511471793
(dp652
g9
I1
sg10
F0
ssI21601320
(dp653
g9
I1
sg10
F0
ssI52544275
(dp654
sI127512071
(dp655
g9
I1
sg10
F0
ssI267512876
(dp656
g9
I1
sg10
F0
ssI886905865483292673
(dp657
sI742042196803739649
(dp658
g9
I1
sg10
F0
ssI755436549416902656
(dp659
g9
I1
sg10
F0
ssI1022382600
(dp660
g9
I1
sg10
F0
ssI3308659762
(dp661
g9
I1
sg10
F0
ssI2151498931
(dp662
sI266734646
(dp663
g9
I1
sg10
F0
ssI705466812717096960
(dp664
g9
I41
sg10
F0.0011099981048812843
ssI904261825864269825
(dp665
g9
I1
sg10
F0
ssI900122114388357126
(dp666
g9
I1
sg10
F0
ssI302593083
(dp667
g9
I1
sg10
F0
ssI2917960765
(dp668
sI18254911
(dp669
sI1007310656
(dp670
sI3408938848
(dp671
sI906590897546166274
(dp672
g9
I1
sg10
F0
ssI411405379
(dp673
g9
I1
sg10
F0
ssI2387824872
(dp674
sI1832479814
(dp675
g9
I1
sg10
F0
ssI197592135
(dp676
g9
I1
sg10
F0
ssI95371788
(dp677
sI14857290
(dp678
g9
I1
sg10
F0
ssI91942071
(dp679
g9
I1
sg10
F0
ssI875024040137773056
(dp680
sI2771848270
(dp681
sI36387920
(dp682
g9
I1
sg10
F0
ssI1371618385
(dp683
g9
I2
sg10
F0
ssI205019081
(dp684
sI63692643
(dp685
sI806798260094451712
(dp686
g9
I1
sg10
F0
ssI256073230
(dp687
sI792783670033743876
(dp688
g9
I1
sg10
F0
ssI28405767
(dp689
sI50712079
(dp690
sI104016988
(dp691
g9
I1
sg10
F0
ssI280896606
(dp692
g9
I1
sg10
F0
ssI261090400
(dp693
g9
I1
sg10
F0
ssI78525538
(dp694
g9
I1
sg10
F0
ssI2186755171
(dp695
g9
I1
sg10
F0
ssI704505328956784641
(dp696
g9
I1
sg10
F0
ssI855488685931999232
(dp697
g9
I1
sg10
F0
ssI103622347
(dp698
g9
I2
sg10
F0
ssI799294889540354048
(dp699
g9
I1
sg10
F0
ssI37610602
(dp700
g9
I1
sg10
F0
ssI859871632222937088
(dp701
sI2945101330
(dp702
sI234941142
(dp703
g9
I1
sg10
F0
ssI33989747
(dp704
g9
I1
sg10
F0
ssI2169945965
(dp705
sI829459635446771712
(dp706
sI906590770685108224
(dp707
g9
I21
sg10
F5.4146249018599232e-05
ssI482429356
(dp708
sI593810556
(dp709
g9
I1
sg10
F0
ssI14306430
(dp710
g9
I2
sg10
F0
ssI15099007
(dp711
g9
I1
sg10
F0
ssI181542016
(dp712
g9
I1
sg10
F0
ssI849039681996165120
(dp713
g9
I1
sg10
F0
ssI906590820656173056
(dp714
g9
I1
sg10
F0
ssI906590566762385408
(dp715
g9
I21
sg10
F0
ssI701069613627535362
(dp716
g9
I1
sg10
F0
ssI24329353
(dp717
g9
I1
sg10
F0
ssI23567501
(dp718
g9
I1
sg10
F0
ssI136729742
(dp719
sI18220175
(dp720
g9
I1
sg10
F0
ssI18912401
(dp721
g9
I1
sg10
F0
ssI906590929724825600
(dp722
g9
I1
sg10
F0
ssI93293716
(dp723
g9
I2
sg10
F0
ssI3448888469
(dp724
sI702235953470038016
(dp725
sI4707812505
(dp726
g9
I1
sg10
F0
ssI752622469144510464
(dp727
sI33041569
(dp728
g9
I1
sg10
F0
ssI206570659
(dp729
sI906586621042200577
(dp730
g9
I1
sg10
F0
ssI880580574569570304
(dp731
g9
I1
sg10
F0
ssI14873767
(dp732
g9
I1
sg10
F0
ssI197600424
(dp733
g9
I1
sg10
F0
ssI188882089
(dp734
sI1164547650
(dp735
sI906590755371626496
(dp736
g9
I1
sg10
F0
ssI16020654
(dp737
g9
I1
sg10
F0
ssI2247355933
(dp738
g9
I1
sg10
F0
ssI242245578
(dp739
sI352672945
(dp740
g9
I1
sg10
F0
ssI40814033
(dp741
sI2292315569
(dp742
sI34184372
(dp743
g9
I1
sg10
F0
ssI3294868813
(dp744
sI777341781360926720
(dp745
g9
I1
sg10
F0
ssI24716475
(dp746
g9
I1
sg10
F0
ssI744621247
(dp747
sI1916120257
(dp748
g9
I7
sg10
F0.0017814115927119148
ssI903019254102069250
(dp749
g9
I1
sg10
F0
ssI815271130386743297
(dp750
sI2880324494
(dp751
sI69681697
(dp752
g9
I1
sg10
F0
ssI902869357298057216
(dp753
g9
I1
sg10
F0
ssI973996236
(dp754
sI2252422987
(dp755
g9
I1
sg10
F0
ssI48041163
(dp756
g9
I1
sg10
F0
ssI179850444
(dp757
g9
I1
sg10
F0
ssI406868514
(dp758
sI108698830
(dp759
g9
I2
sg10
F0
ssI15160529
(dp760
g9
I1
sg10
F0
ssI280130770
(dp761
sI10142932
(dp762
g9
I1
sg10
F0
ssI379741390
(dp763
sI7587032
(dp764
g9
I1
sg10
F0
ssI842423007834443777
(dp765
g9
I1
sg10
F0
ssI409486555
(dp766
sI821714293418758144
(dp767
sI48360631
(dp768
g9
I1
sg10
F0
ssI40814117
(dp769
sI791810860431781888
(dp770
sI860840079195066368
(dp771
sI4865836294
(dp772
sI1849075543
(dp773
g9
I1
sg10
F0
ssI203980008
(dp774
sI3409521898
(dp775
g9
I1
sg10
F0
ssI863439402357411840
(dp776
sI713048630173638656
(dp777
g9
I1
sg10
F0
ssI3001271422
(dp778
sI46476526
(dp779
g9
I1
sg10
F0
ssI792868059836878850
(dp780
sI813853845562466304
(dp781
sI481461757
(dp782
sI2927031541
(dp783
g9
I1
sg10
F0
ssI19227177
(dp784
g9
I1
sg10
F0
ssI136499071
(dp785
g9
I1
sg10
F0
ssI197586172
(dp786
g9
I1
sg10
F0
ssI383031509
(dp787
g9
I1
sg10
F0
ssI706643098864988160
(dp788
g9
I1
sg10
F0
ssI134194433
(dp789
g9
I1
sg10
F0
ssI425819395
(dp790
sI197731588
(dp791
g9
I1
sg10
F0
ssI16631045
(dp792
g9
I1
sg10
F0
ssI839351135131443200
(dp793
g9
I1
sg10
F0
ssI45266183
(dp794
sI701725963
(dp795
g9
I1
sg10
F0
ssI900119151372492801
(dp796
g9
I2
sg10
F0
ssI277383725
(dp797
g9
I1
sg10
F0
ssI3449148695
(dp798
g9
I1
sg10
F0
ssI813858525055172608
(dp799
sI875313173083164673
(dp800
g9
I1
sg10
F0
ssI2990264100
(dp801
g9
I1
sg10
F0
ssI50769180
(dp802
g9
I1
sg10
F0
ssI19072286
(dp803
sI800494468310761472
(dp804
g9
I1
sg10
F0
ssI79923701
(dp805
sI906585765651652609
(dp806
g9
I1
sg10
F0
ssI16714630
(dp807
g9
I1
sg10
F0
ssI816078756360097792
(dp808
sI855756072
(dp809
g9
I1
sg10
F0
ssI18222378
(dp810
sI2458762802
(dp811
sI150887728
(dp812
sI28880869
(dp813
sI165297460
(dp814
sI19397942
(dp815
g9
I1
sg10
F0
ssI18378044
(dp816
g9
I1
sg10
F0
ssI247459133
(dp817
g9
I1
sg10
F0
ssI861102310478548992
(dp818
sI941686081
(dp819
sI906577131869806594
(dp820
g9
I1
sg10
F0
ssI548687171
(dp821
g9
I1
sg10
F0
ssI21558596
(dp822
g9
I1
sg10
F0
ssI37764422
(dp823
g9
I1
sg10
F0
ssI278240583
(dp824
sI872253703188774912
(dp825
g9
I1
sg10
F0
ssI828052364
(dp826
sI48055626
(dp827
g9
I1
sg10
F0
ssI2980703969
(dp828
sI8453452
(dp829
g9
I1
sg10
F0
ssI118818125
(dp830
g9
I1
sg10
F0
ssI743211192823517184
(dp831
sI147961168
(dp832
g9
I1
sg10
F0
ssI335534204
(dp833
sI856646196378710017
(dp834
g9
I1
sg10
F0
ssI19586276
(dp835
g9
I1
sg10
F0
ssI805433385623568385
(dp836
g9
I1
sg10
F0
ssI92695098
(dp837
sI906590918307807232
(dp838
g9
I1
sg10
F0
ssI811480199938396160
(dp839
sI246248801
(dp840
sI70544738
(dp841
g9
I40
sg10
F0.0010775103554701247
ssI20150502
(dp842
g9
I1
sg10
F0
ssI123418655
(dp843
sI3152186729
(dp844
g9
I1
sg10
F0
ssI172774762
(dp845
g9
I1
sg10
F0
ssI22203756
(dp846
g9
I1
sg10
F0
ssI252104045
(dp847
g9
I1
sg10
F0
ssI801244331487219712
(dp848
g9
I1
sg10
F0
ssI810685395377725440
(dp849
g9
I1
sg10
F0
ssI40815985
(dp850
sI228535666
(dp851
g9
I1
sg10
F0
ssI40815987
(dp852
sI19834228
(dp853
g9
I1
sg10
F0
ssI40815989
(dp854
sI2153229686
(dp855
sI40815991
(dp856
sI3787536555
(dp857
sI773522131393077248
(dp858
sI40815999
(dp859
sI40816001
(dp860
sI287624578
(dp861
g9
I1
sg10
F0
ssI2714472342
(dp862
sI800094690666131456
(dp863
g9
I1
sg10
F0
ssI270839361
(dp864
g9
I1
sg10
F0
ssI57335176
(dp865
g9
I1
sg10
F0
ssI22986121
(dp866
g9
I1
sg10
F0
ssI817218652391034880
(dp867
sI890526296794685441
(dp868
g9
I1
sg10
F0
ssI2238324110
(dp869
g9
I40
sg10
F0.00054146249018599232
ssI719141171847540737
(dp870
sI2372441490
(dp871
sI860374943049101313
(dp872
sI17881816
(dp873
sI892152461082984449
(dp874
g9
I1
sg10
F0
ssI862729021557223425
(dp875
sI828934258769158146
(dp876
sI809743447246733312
(dp877
g9
I2
sg10
F0
ssI2168866206
(dp878
g9
I1
sg10
F0
ssI904929019136704512
(dp879
g9
I1
sg10
F0
ssI14366112
(dp880
g9
I2
sg10
F0
ssI134921444
(dp881
sI860070224820875265
(dp882
g9
I1
sg10
F0
ssI90348965
(dp883
g9
I1
sg10
F0
ssI708217319130943488
(dp884
sI197567914
(dp885
g9
I1
sg10
F0
ssI40815337
(dp886
sI23158189
(dp887
g9
I1
sg10
F0
ssI335287726
(dp888
g9
I1
sg10
F0
ssI471672239
(dp889
g9
I1
sg10
F0
ssI2881274440
(dp890
g9
I1
sg10
F0
ssI292146610
(dp891
g9
I1
sg10
F0
ssI885743171845488641
(dp892
g9
I1
sg10
F0
ssI1932676536
(dp893
sI447137209
(dp894
sI75541946
(dp895
g9
I1
sg10
F0
ssI3150275487
(dp896
sI79386044
(dp897
g9
I1
sg10
F0
ssI1055490565
(dp898
sI3468502462
(dp899
sI3157312960
(dp900
sI40814383
(dp901
sI30313925
(dp902
g9
I1
sg10
F0
ssI1345646022
(dp903
g9
I1
sg10
F0
ssI215244619
(dp904
sI93406669
(dp905
g9
I1
sg10
F0
ssI8771022
(dp906
g9
I1
sg10
F0
ssI630169165
(dp907
g9
I1
sg10
F0
ssI1965255073
(dp908
g9
I1
sg10
F0
ssI3296742865
(dp909
g9
I1
sg10
F0
ssI554468819
(dp910
g9
I1
sg10
F0
ssI900436451216830465
(dp911
g9
I1
sg10
F0
ssI4690290134
(dp912
sI27966935
(dp913
g9
I2
sg10
F0
ssI102401151
(dp914
sI1029295578
(dp915
g9
I1
sg10
F0
ssI19113435
(dp916
g9
I1
sg10
F0
ssI805538910394785793
(dp917
g9
I1
sg10
F0
ssI828051573725134848
(dp918
g9
I1
sg10
F0
ssI505083
(dp919
g9
I1
sg10
F0
ssI231673318
(dp920
g9
I1
sg10
F0
ssI18906599
(dp921
g9
I1
sg10
F0
ssI759871070136598528
(dp922
g9
I1
sg10
F0
ssI4804296170
(dp923
g9
I40
sg10
F0.0010802176679210547
ssI51506610
(dp924
sI223671790
(dp925
g9
I1
sg10
F0
ssI15416816
(dp926
g9
I1
sg10
F0
ssI5099091
(dp927
g9
I1
sg10
F0
ssI1339835893
(dp928
g9
I2
sg10
F0
ssI2763795958
(dp929
g9
I1
sg10
F0
ssI276514295
(dp930
g9
I1
sg10
F0
ssI615927039
(dp931
g9
I1
sg10
F0
ssI4022842876
(dp932
g9
I1
sg10
F0
ssI2159138301
(dp933
g9
I1
sg10
F0
ssI179043039
(dp934
g9
I1
sg10
F0
ssI16340480
(dp935
g9
I1
sg10
F0
ssI770299631909691392
(dp936
sI906289871764963328
(dp937
g9
I1
sg10
F0
ssI292083207
(dp938
g9
I1
sg10
F0
ssI171968009
(dp939
g9
I1
sg10
F0
ssI14941706
(dp940
g9
I1
sg10
F0
ssI3063995915
(dp941
sI3643403789
(dp942
g9
I2
sg10
F0
ssI197731854
(dp943
g9
I1
sg10
F0
ssI19373583
(dp944
g9
I1
sg10
F0
ssI20490840
(dp945
g9
I1
sg10
F0
ssI2874539538
(dp946
sI848390189491802112
(dp947
sI90727790
(dp948
g9
I1
sg10
F0
ssI809920015298424832
(dp949
g9
I1
sg10
F0
ssI357606935
(dp950
g9
I40
sg10
F0.00054146249018599232
ssI63262233
(dp951
g9
I1
sg10
F0
ssI9477212
(dp952
sI3129024027
(dp953
sI22703645
(dp954
g9
I1
sg10
F0
ssI20545055
(dp955
sI627463714
(dp956
g9
I1
sg10
F0
ssI155390555
(dp957
sI724924108400672769
(dp958
g9
I1
sg10
F0
ssI219582726
(dp959
g9
I1
sg10
F0
ssI2425410558
(dp960
sI124002304
(dp961
g9
I1
sg10
F0
ssI3131448873
(dp962
g9
I1
sg10
F0
ssI906252573732208640
(dp963
sI86165426
(dp964
sI533202479
(dp965
sI21526685
(dp966
sI501104471
(dp967
sI304966579
(dp968
sI4366246647
(dp969
g9
I1
sg10
F0
ssI900073700178919425
(dp970
g9
I1
sg10
F0
ssI898760444533288960
(dp971
g9
I2
sg10
F0
ssI906589963206184961
(dp972
g9
I1
sg10
F0
ssI740597986846203904
(dp973
g9
I1
sg10
F0
ssI197336641
(dp974
g9
I1
sg10
F0
ssI18105922
(dp975
g9
I1
sg10
F0
ssI18341444
(dp976
g9
I1
sg10
F0
ssI77686342
(dp977
g9
I1
sg10
F0
ssI833376066966167552
(dp978
g9
I1
sg10
F0
ssI780186726228750336
(dp979
g9
I1
sg10
F0
ssI493334089
(dp980
sI14067639
(dp981
g9
I1
sg10
F0
ssI17006157
(dp982
g9
I1
sg10
F0
ssI545361165
(dp983
g9
I1
sg10
F0
ssI231442000
(dp984
g9
I1
sg10
F0
ssI2325495378
(dp985
g9
I1
sg10
F0
ssI858940238273683456
(dp986
g9
I1
sg10
F0
ssI31448660
(dp987
g9
I1
sg10
F0
ssI2863488598
(dp988
sI864928799603011591
(dp989
g9
I1
sg10
F0
ssI362438233
(dp990
sI712240414166634496
(dp991
g9
I1
sg10
F0
ssI4171431515
(dp992
g9
I1
sg10
F0
ssI807677164023844864
(dp993
sI418991709
(dp994
g9
I1
sg10
F0
ssI4003911263
(dp995
g9
I1
sg10
F0
ssI702117062437695489
(dp996
sI942655830
(dp997
g9
I1
sg10
F0
ssI20713061
(dp998
sI31080039
(dp999
g9
I1
sg10
F0
ssI117278313
(dp1000
sI72568426
(dp1001
g9
I1
sg10
F0
ssI416647783
(dp1002
g9
I1
sg10
F0
ssI18970220
(dp1003
sI196032110
(dp1004
g9
I1
sg10
F0
ssI77216701
(dp1005
g9
I1
sg10
F0
ssI829789919744761856
(dp1006
g9
I2
sg10
F0
ssI705324658
(dp1007
g9
I1
sg10
F0
ssI2153016948
(dp1008
g9
I1
sg10
F0
ssI261371509
(dp1009
g9
I1
sg10
F0
ssI99868278
(dp1010
g9
I1
sg10
F0
ssI2176745083
(dp1011
g9
I40
sg10
F0.0010680347618918699
ssI1400555132
(dp1012
g9
I1
sg10
F0
ssI519753341
(dp1013
g9
I1
sg10
F0
ssI197676671
(dp1014
g9
I1
sg10
F0
ssI3245667971
(dp1015
g9
I1
sg10
F0
ssI465544836
(dp1016
sI906587112325238784
(dp1017
g9
I1
sg10
F0
ssI906578165648171008
(dp1018
g9
I1
sg10
F0
ssI446620951
(dp1019
g9
I1
sg10
F0
ssI249829698
(dp1020
g9
I1
sg10
F0
ssI256793538
(dp1021
g9
I1
sg10
F0
ssI133430928
(dp1022
sI2341332625
(dp1023
sI1955597970
(dp1024
g9
I1
sg10
F0
ssI2884538307
(dp1025
g9
I1
sg10
F0
ssI4824813166
(dp1026
g9
I1
sg10
F0
ssI822844948433301504
(dp1027
g9
I1
sg10
F0
ssI64003736
(dp1028
g9
I1
sg10
F0
ssI321037252
(dp1029
sI69675599
(dp1030
g9
I1
sg10
F0
ssI20659868
(dp1031
g9
I1
sg10
F0
ssI865721143369506816
(dp1032
g9
I2
sg10
F0
ssI83738272
(dp1033
sI217732769
(dp1034
sI197717666
(dp1035
g9
I1
sg10
F0
ssI3301481896
(dp1036
sI906482187284959233
(dp1037
g9
I1
sg10
F0
ssI299734693
(dp1038
g9
I1
sg10
F0
ssI843763706676854784
(dp1039
sI1729822376
(dp1040
g9
I1
sg10
F0
ssI633992873
(dp1041
g9
I1
sg10
F0
ssI25959064
(dp1042
sI2399120804
(dp1043
sI14466732
(dp1044
sI132489842
(dp1045
sI1660862130
(dp1046
g9
I2
sg10
F0
ssI2208812724
(dp1047
g9
I1
sg10
F0
ssI3078420766
(dp1048
g9
I1
sg10
F0
ssI191166134
(dp1049
sI257796800
(dp1050
g9
I1
sg10
F0
ssI2383492793
(dp1051
g9
I1
sg10
F0
ssI801959011247484928
(dp1052
g9
I1
sg10
F0
ssI197752508
(dp1053
g9
I1
sg10
F0
ssI117269671
(dp1054
g9
I2
sg10
F0
ssI866392710411948032
(dp1055
g9
I1
sg10
F0
ssI886318841260802049
(dp1056
g9
I1
sg10
F0
ssI898811912699482112
(dp1057
sI906590945742868482
(dp1058
g9
I1
sg10
F0
ssI3120443075
(dp1059
g9
I1
sg10
F0
ssI800085998986149889
(dp1060
sI16378486
(dp1061
g9
I1
sg10
F0
ssI840943865133703168
(dp1062
g9
I1
sg10
F0
ssI50600062
(dp1063
sI24024778
(dp1064
g9
I1
sg10
F0
ssI826217983290769410
(dp1065
g9
I16
sg10
F7.0390123724179009e-05
ssI698153378757660672
(dp1066
g9
I1
sg10
F0
ssI40815457
(dp1067
sI894352469744001024
(dp1068
g9
I1
sg10
F0
ssI1472026321
(dp1069
g9
I1
sg10
F0
ssI211037906
(dp1070
g9
I1
sg10
F0
ssI38721239
(dp1071
sI34209496
(dp1072
g9
I1
sg10
F0
ssI213698852
(dp1073
g9
I1
sg10
F0
ssI185954863
(dp1074
sI46120911
(dp1075
sI826312252085112832
(dp1076
sI743071503642566657
(dp1077
g9
I1
sg10
F0
ssI2388207329
(dp1078
g9
I1
sg10
F0
ssI39835363
(dp1079
g9
I1
sg10
F0
ssI39710722
(dp1080
sI974802661
(dp1081
g9
I1
sg10
F0
ssI359540454
(dp1082
sI124229352
(dp1083
g9
I1
sg10
F0
ssI872075482384224257
(dp1084
g9
I2
sg10
F0
ssI903475806655045633
(dp1085
sI15935213
(dp1086
sI50055701
(dp1087
sI330509973
(dp1088
sI161715155
(dp1089
g9
I1
sg10
F0
ssI52009598
(dp1090
g9
I1
sg10
F0
ssI904932281285881856
(dp1091
sI413253370
(dp1092
sI246430286
(dp1093
sI40815621
(dp1094
sI2305384189
(dp1095
g9
I1
sg10
F0
ssI587165439
(dp1096
sI906588826885173248
(dp1097
g9
I1
sg10
F0
ssI856473488659537920
(dp1098
g9
I1
sg10
F0
ssI185374468
(dp1099
g9
I1
sg10
F0
ssI40814121
(dp1100
sI906590907608195072
(dp1101
g9
I1
sg10
F0
ssI882645123196231680
(dp1102
g9
I41
sg10
F0.0020034112136881718
ssI202258185
(dp1103
g9
I1
sg10
F0
ssI4910329610
(dp1104
g9
I1
sg10
F0
ssI151295755
(dp1105
g9
I1
sg10
F0
ssI835914152027750400
(dp1106
sI173699375
(dp1107
g9
I1
sg10
F0
ssI20963090
(dp1108
g9
I1
sg10
F0
ssI2978414355
(dp1109
sI2894114580
(dp1110
g9
I1
sg10
F0
ssI716386643213574144
(dp1111
sI813750042
(dp1112
g9
I1
sg10
F0
ssI93673775
(dp1113
g9
I1
sg10
F0
ssI57779998
(dp1114
g9
I1
sg10
F0
ssI64997151
(dp1115
g9
I1
sg10
F0
ssI162205472
(dp1116
sI3274699908
(dp1117
g9
I1
sg10
F0
ssI906588853120720897
(dp1118
g9
I1
sg10
F0
ssI1932851846
(dp1119
g9
I2
sg10
F0
ssI56561449
(dp1120
g9
I1
sg10
F0
ssI197812010
(dp1121
g9
I1
sg10
F0
ssI906588368108224512
(dp1122
g9
I1
sg10
F0
ssI431413036
(dp1123
g9
I1
sg10
F0
ssI860137000686338048
(dp1124
g9
I1
sg10
F0
ssI3734732592
(dp1125
g9
I1
sg10
F0
ssI4905251806
(dp1126
g9
I1
sg10
F0
ssI773397580051017728
(dp1127
g9
I1
sg10
F0
ssI279827082
(dp1128
g9
I1
sg10
F0
ssI2191169342
(dp1129
g9
I1
sg10
F0
ssI3082022719
(dp1130
g9
I1
sg10
F0
ssI3441047360
(dp1131
g9
I1
sg10
F0
ssI190404578
(dp1132
g9
I1
sg10
F0
ssI420396862
(dp1133
sI20479813
(dp1134
g9
I1
sg10
F0
ssI2273656646
(dp1135
sI299558731
(dp1136
g9
I2
sg10
F0
ssI24594252
(dp1137
g9
I1
sg10
F0
ssI1300301
(dp1138
g9
I1
sg10
F0
ssI419918470
(dp1139
g9
I1
sg10
F0
ssI115414863
(dp1140
g9
I1
sg10
F0
ssI9207632
(dp1141
g9
I1
sg10
F0
ssI702739245195096065
(dp1142
g9
I1
sg10
F0
ssI3417556319
(dp1143
g9
I2
sg10
F0
ssI2872661847
(dp1144
g9
I1
sg10
F0
ssI14400484
(dp1145
sI2242922330
(dp1146
g9
I1
sg10
F0
ssI191889245
(dp1147
g9
I1
sg10
F0
ssI50476895
(dp1148
g9
I1
sg10
F0
ssI4121225056
(dp1149
g9
I1
sg10
F0
ssI2247018338
(dp1150
g9
I1
sg10
F0
ssI2892875619
(dp1151
sI839177690544488449
(dp1152
g9
I1
sg10
F0
ssI197680102
(dp1153
g9
I1
sg10
F0
ssI50329448
(dp1154
g9
I1
sg10
F0
ssI322293052
(dp1155
g9
I1
sg10
F0
ssI2892572588
(dp1156
sI14781534
(dp1157
sI757667003092140032
(dp1158
g9
I1
sg10
F0
ssI280860526
(dp1159
g9
I1
sg10
F0
ssI122339183
(dp1160
g9
I2
sg10
F0
ssI48927836
(dp1161
g9
I1
sg10
F0
ssI180733809
(dp1162
g9
I1
sg10
F0
ssI121204594
(dp1163
g9
I1
sg10
F0
ssI33648499
(dp1164
g9
I1
sg10
F0
ssI128724853
(dp1165
g9
I1
sg10
F0
ssI879005499932278788
(dp1166
sI1890938744
(dp1167
g9
I1
sg10
F0
ssI906591142527070208
(dp1168
g9
I1
sg10
F0
ssI709878752793133056
(dp1169
sI275476458
(dp1170
g9
I1
sg10
F0
ssI906590318207881218
(dp1171
g9
I1
sg10
F0
ssI858513720925978624
(dp1172
g9
I1
sg10
F0
ssI19255509
(dp1173
sI729676086632656900
(dp1174
g9
I1
sg10
F0
ssI21655428
(dp1175
g9
I1
sg10
F0
ssI118896517
(dp1176
g9
I1
sg10
F0
ssI906590421572186112
(dp1177
g9
I1
sg10
F0
ssI58105735
(dp1178
g9
I1
sg10
F0
ssI61636488
(dp1179
g9
I1
sg10
F0
ssI171020169
(dp1180
g9
I1
sg10
F0
ssI70938507
(dp1181
sI21431618
(dp1182
g9
I1
sg10
F0
ssI293167768
(dp1183
sI28754963
(dp1184
sI2830667667
(dp1185
sI211269614
(dp1186
g9
I1
sg10
F0
ssI884677621547757568
(dp1187
g9
I1
sg10
F0
ssI66467735
(dp1188
g9
I1
sg10
F0
ssI1587890072
(dp1189
g9
I1
sg10
F0
ssI2567908676
(dp1190
g9
I1
sg10
F0
ssI134891503
(dp1191
sI108247668
(dp1192
sI891796727791005697
(dp1193
g9
I1
sg10
F0
ssI721519833561477120
(dp1194
g9
I1
sg10
F0
ssI705488139091972096
(dp1195
g9
I1
sg10
F0
ssI906586306834132993
(dp1196
g9
I1
sg10
F0
ssI81810611
(dp1197
sI47032231
(dp1198
g9
I1
sg10
F0
ssI149891740
(dp1199
sI901767932304392192
(dp1200
g9
I1
sg10
F0
ssI830813993824636928
(dp1201
g9
I2
sg10
F0
ssI94195631
(dp1202
g9
I1
sg10
F0
ssI2590257072
(dp1203
g9
I1
sg10
F0
ssI236631986
(dp1204
g9
I1
sg10
F0
ssI112621492
(dp1205
g9
I1
sg10
F0
ssI3091808182
(dp1206
sI216776631
(dp1207
g9
I1
sg10
F0
ssI2174463928
(dp1208
g9
I1
sg10
F0
ssI709774998874013696
(dp1209
sI878604381050032129
(dp1210
g9
I1
sg10
F0
ssI14084825
(dp1211
sI906587359768203266
(dp1212
g9
I1
sg10
F0
ssI587191730
(dp1213
g9
I1
sg10
F0
ssI18442178
(dp1214
g9
I1
sg10
F0
ssI735275750505340928
(dp1215
g9
I1
sg10
F0
ssI606211203
(dp1216
g9
I1
sg10
F0
ssI897368871669084160
(dp1217
g9
I1
sg10
F0
ssI2900662775
(dp1218
sI17891273
(dp1219
g9
I1
sg10
F0
ssI2717044682
(dp1220
g9
I1
sg10
F0
ssI17475575
(dp1221
sI613398477
(dp1222
g9
I1
sg10
F0
ssI322953166
(dp1223
g9
I1
sg10
F0
ssI869771321911148544
(dp1224
sI21878736
(dp1225
g9
I1
sg10
F0
ssI157638614
(dp1226
g9
I1
sg10
F0
ssI40815151
(dp1227
sI813048057973587968
(dp1228
sI844629005760385024
(dp1229
sI286261212
(dp1230
g9
I1
sg10
F0
ssI91285471
(dp1231
g9
I1
sg10
F0
ssI55570400
(dp1232
g9
I1
sg10
F0
ssI21954529
(dp1233
g9
I1
sg10
F0
ssI2457429986
(dp1234
g9
I1
sg10
F0
ssI800707492346925056
(dp1235
g9
I1
sg10
F0
ssI49879012
(dp1236
g9
I1
sg10
F0
ssI40814565
(dp1237
sI444470743
(dp1238
g9
I1
sg10
F0
ssI16113639
(dp1239
g9
I1
sg10
F0
ssI26322920
(dp1240
g9
I1
sg10
F0
ssI99362794
(dp1241
g9
I1
sg10
F0
ssI17171111
(dp1242
g9
I1
sg10
F0
ssI905742450274082816
(dp1243
g9
I1
sg10
F0
ssI906124632155181056
(dp1244
g9
I1
sg10
F0
ssI846137120209190912
(dp1245
g9
I1
sg10
F0
ssI64397992
(dp1246
g9
I1
sg10
F0
ssI302618611
(dp1247
sI5402612
(dp1248
g9
I1
sg10
F0
ssI791306523062497280
(dp1249
g9
I1
sg10
F0
ssI1087440553
(dp1250
g9
I2
sg10
F0
ssI803449034019110913
(dp1251
sI19058681
(dp1252
sI40815799
(dp1253
sI807095
(dp1254
sI40814591
(dp1255
ssS'node_dict_factory'
p1256
c__builtin__
dict
p1257
sS'edge_attr_dict_factory'
p1258
g1257
sS'succ'
p1259
(dp1260
I885393827103727616
(dp1261
I902869357298057216
(dp1262
sI866392710411948032
(dp1263
sI429857924
(dp1264
sI705780698788073472
(dp1265
sI2719944836
(dp1266
sI889211931202117632
(dp1267
sI900073700178919425
(dp1268
sI861745475908775936
(dp1269
sI891081498790703104
(dp1270
sI3457675883
(dp1271
sI905180324937785345
(dp1272
sI2806112911
(dp1273
sI1965255073
(dp1274
sI705488139091972096
(dp1275
sI2181560068
(dp1276
sI743071503642566657
(dp1277
sI1400555132
(dp1278
sI4022842876
(dp1279
sI3078420766
(dp1280
sI4003911263
(dp1281
ssI842714107178450944
(dp1282
sI906590439578460162
(dp1283
I904066506346123264
(dp1284
ssI900031402845978627
(dp1285
cnumpy.core.multiarray
scalar
p1286
(cnumpy
dtype
p1287
(S'i8'
I0
I1
tRp1288
(I3
S'<'
NNNI-1
I-1
I0
tbS'{~\xbe\x81\x00\x00\x00\x00'
tRp1289
(dp1290
ssI885697397564866564
(dp1291
sI906587332157026309
(dp1292
I767995186605686784
(dp1293
sI563946002
(dp1294
ssI796902352963764224
(dp1295
sI906586171278585857
(dp1296
sI2675288072
(dp1297
sI890891
(dp1298
g1286
(g1288
S'\x00\xe0\xd6\xb2\xa5\xdb\x94\x0c'
tRp1299
(dp1300
ssI266420236
(dp1301
sI901941258318479362
(dp1302
sI40814607
(dp1303
sI906589926510260225
(dp1304
sI30838787
(dp1305
g1286
(g1288
S'\x8e#r%\x00\x00\x00\x00'
tRp1306
(dp1307
ssI20733972
(dp1308
g1286
(g1288
S'\xd5\x98~\x01\x00\x00\x00\x00'
tRp1309
(dp1310
ssI906590003328937984
(dp1311
sI14075928
(dp1312
g1286
(g1288
S'\x00`U\xab\x80\xdb\x94\x0c'
tRp1313
(dp1314
ssI2990729241
(dp1315
g1286
(g1288
S'\xdc1=\x06\x00\x00\x00\x00'
tRp1316
(dp1317
ssI106762266
(dp1318
g1286
(g1288
S"\xa1\xe1'\x86\x00\x00\x00\x00"
tRp1319
(dp1320
ssI898345680623857665
(dp1321
sI191450458
(dp1322
sI817873519954587653
(dp1323
sI976900128
(dp1324
g1286
(g1288
S'\x00\x90\x970Q\xdb\x94\x0c'
tRp1325
(dp1326
ssI3457675883
(dp1327
sI823367015830323201
(dp1328
g1309
(dp1329
ssI906589922886373382
(dp1330
sI108648487
(dp1331
g1286
(g1288
S'\x1c\xc1\xc6\x0b\x00\x00\x00\x00'
tRp1332
(dp1333
ssI14850088
(dp1334
sI767995186605686784
(dp1335
g1286
(g1288
S'\x02\xd0\xd7\x80f\xd8\x94\x0c'
tRp1336
(dp1337
ssI906589970009346055
(dp1338
sI365939318
(dp1339
g1286
(g1288
S'\x01@Wd\xcc\xad\xa1\x0b'
tRp1340
(dp1341
ssI473960496
(dp1342
g1286
(g1288
S'z(\x1fJ\x00\x00\x00\x00'
tRp1343
(dp1344
ssI3135860744
(dp1345
sI23186079
(dp1346
g1336
(dp1347
ssI906583132551487490
(dp1348
sI214409268
(dp1349
g1286
(g1288
S'\x00`\xd7\xa6\xfe\x8cI\x0c'
tRp1350
(dp1351
ssI117743669
(dp1352
g1286
(g1288
S'\x17\xa6P\x15\x00\x00\x00\x00'
tRp1353
(dp1354
ssI40814647
(dp1355
g1286
(g1288
S'G\xa1\xeb\x02\x00\x00\x00\x00'
tRp1356
(dp1357
ssI197545311
(dp1358
g1332
(dp1359
ssI10729532
(dp1360
g1286
(g1288
S'\r\xccn\x02\x00\x00\x00\x00'
tRp1361
(dp1362
ssI197810238
(dp1363
g1286
(g1288
S'\x1e\x11\xc8\x0b\x00\x00\x00\x00'
tRp1364
(dp1365
ssI40814261
(dp1366
sI61440064
(dp1367
g1340
(dp1368
ssI3283517792
(dp1369
sI970207298
(dp1370
g1286
(g1288
S'\xe3\xd6_\x02\x00\x00\x00\x00'
tRp1371
(dp1372
sg1353
(dp1373
ssI384951307
(dp1374
g1286
(g1288
S'\x02\x00\x16\xd9\xe0Pw\x0b'
tRp1375
(dp1376
ssI2212489284
(dp1377
sI443215941
(dp1378
g1286
(g1288
S'bm4\x04\x00\x00\x00\x00'
tRp1379
(dp1380
ssI8824902
(dp1381
g1286
(g1288
S'\x05\xb0\x16\x13`\xd8\x94\x0c'
tRp1382
(dp1383
ssI765515105576550400
(dp1384
g1286
(g1288
S'\x00\x80\x97\x7f\xda\xd3\x94\x0c'
tRp1385
(dp1386
ssI81947660
(dp1387
sI40814667
(dp1388
sI738894256593502208
(dp1389
sI2289143886
(dp1390
sI48304141
(dp1391
sI403720013
(dp1392
g1286
(g1288
S'\xf6-\xbc\xa4\x00\x00\x00\x00'
tRp1393
(dp1394
ssI29995782
(dp1395
g1340
(dp1396
ssI1691574356
(dp1397
g1286
(g1288
S'\x01pW\xc9Q\xd7\x94\x0c'
tRp1398
(dp1399
ssI4827631701
(dp1400
g1340
(dp1401
ssI731342744157741056
(dp1402
sI2214869083
(dp1403
g1385
(dp1404
ssI49049693
(dp1405
g1286
(g1288
S'(\x13<\x05\x00\x00\x00\x00'
tRp1406
(dp1407
ssI2461252965
(dp1408
sI433741920
(dp1409
sI429857924
(dp1410
g1350
(dp1411
ssI1485733987
(dp1412
g1286
(g1288
S'\x00\xa0\xd7&\x10\xc9?\x0c'
tRp1413
(dp1414
ssI1221025892
(dp1415
g1286
(g1288
S'B)\xc6\x02\x00\x00\x00\x00'
tRp1416
(dp1417
ssI27058391
(dp1418
g1286
(g1288
S'\x02P\x97\x02T\xbf}\x0b'
tRp1419
(dp1420
ssI16498705
(dp1421
g1419
(dp1422
ssI784401549778911232
(dp1423
sI19837528
(dp1424
g1393
(dp1425
ssI2772648048
(dp1426
sI98314354
(dp1427
sI575663123
(dp1428
sI5625972
(dp1429
g1286
(g1288
S'\x8e\x1dj\x85\x00\x00\x00\x00'
tRp1430
(dp1431
ssI4916410486
(dp1432
sI2750877815
(dp1433
g1286
(g1288
S'\tA\xc1\x01\x00\x00\x00\x00'
tRp1434
(dp1435
ssI891384910921048064
(dp1436
g1336
(dp1437
ssI1243555962
(dp1438
I793738137138847744
(dp1439
sI800085998986149889
(dp1440
sI737233125361750016
(dp1441
sI750317076112375808
(dp1442
sI245802517
(dp1443
sI285846002
(dp1444
sI246430286
(dp1445
sI46120911
(dp1446
sI435757008
(dp1447
sI2372441490
(dp1448
sI740825976213491712
(dp1449
sI165297460
(dp1450
sI3448888469
(dp1451
sI4005088055
(dp1452
sI1369596122
(dp1453
sI3129024027
(dp1454
sI149891740
(dp1455
sI3468502462
(dp1456
sI420396862
(dp1457
sI709878752793133056
(dp1458
ssI223166587
(dp1459
g1353
(dp1460
ssI48906364
(dp1461
g1286
(g1288
S'\x91\x93\xd9\x02\x00\x00\x00\x00'
tRp1462
(dp1463
ssI887063489625325572
(dp1464
g1375
(dp1465
ssI14669951
(dp1466
g1309
(dp1467
ssI3064789121
(dp1468
g1385
(dp1469
ssI497250434
(dp1470
g1379
(dp1471
ssI3486152835
(dp1472
g1416
(dp1473
ssI2719944836
(dp1474
sI235261974
(dp1475
g1286
(g1288
S'=\xab\x12\x07\x00\x00\x00\x00'
tRp1476
(dp1477
ssI906590151605751808
(dp1478
sI7120992
(dp1479
g1419
(dp1480
ssI5392522
(dp1481
g1379
(dp1482
ssI898059854006308864
(dp1483
sI108910732
(dp1484
g1306
(dp1485
ssI5695632
(dp1486
g1286
(g1288
S'Y\xa2\x8a\x08\x00\x00\x00\x00'
tRp1487
(dp1488
ssI79293791
(dp1489
g1286
(g1288
S'\x00\xb0\x17\xf4I7\xff\x0b'
tRp1490
(dp1491
sg1299
(dp1492
sg1371
(dp1493
ssI20316308
(dp1494
sI3267350677
(dp1495
sI40815581
(dp1496
sI50294938
(dp1497
g1430
(dp1498
ssI40814747
(dp1499
g1356
(dp1500
ssI28113052
(dp1501
g1434
(dp1502
ssI1532061
(dp1503
g1361
(dp1504
ssI34507480
(dp1505
g1299
(dp1506
ssI4615888755
(dp1507
sI198858461
(dp1508
g1343
(dp1509
ssI342599843
(dp1510
g1325
(dp1511
ssI816298918468259841
(dp1512
g1434
(dp1513
ssI4025225381
(dp1514
sI82613214
(dp1515
g1306
(dp1516
ssI812376663560519680
(dp1517
sI80361644
(dp1518
g1434
(dp1519
ssI2397625714
(dp1520
g1393
(dp1521
ssI143024790
(dp1522
sI394465457
(dp1523
g1286
(g1288
S'X9H\x03\x00\x00\x00\x00'
tRp1524
(dp1525
ssI1915534530
(dp1526
g1336
(dp1527
ssI16548023
(dp1528
g1313
(dp1529
ssI813749727170793473
(dp1530
g1385
(dp1531
ssI1016021178
(dp1532
g1487
(dp1533
ssI887878687
(dp1534
g1353
(dp1535
ssI212113098
(dp1536
g1393
(dp1537
ssI838672863716589568
(dp1538
g1385
(dp1539
ssI802392555807735808
(dp1540
g1289
(dp1541
ssI19685572
(dp1542
g1289
(dp1543
ssI3353579894
(dp1544
sI994511047
(dp1545
g1385
(dp1546
ssI790728
(dp1547
g1398
(dp1548
sg1375
(dp1549
ssI859885856752107520
(dp1550
sI704482666955976704
(dp1551
sI14989516
(dp1552
g1316
(dp1553
ssI2564370638
(dp1554
g1393
(dp1555
ssI234904269
(dp1556
g1490
(dp1557
ssI376967376
(dp1558
sI25073877
(dp1559
I906591142527070208
(dp1560
sI906588826885173248
(dp1561
sI906590945742868482
(dp1562
sI906590566762385408
(dp1563
sI906590655278919681
(dp1564
sI901941258318479362
(dp1565
sI58503830
(dp1566
sI906590907608195072
(dp1567
sI906482187284959233
(dp1568
sI906589922886373382
(dp1569
sI906590687491006464
(dp1570
sI906590755371626496
(dp1571
sI906588016004579328
(dp1572
sI3308659762
(dp1573
sI906590439578460162
(dp1574
sg1375
(dp1575
sI906588962977931264
(dp1576
sI906589970009346055
(dp1577
sI906590918307807232
(dp1578
sg1299
(dp1579
sI906590850985058304
(dp1580
sI906590224695914496
(dp1581
ssI906588395492794368
(dp1582
sI245802517
(dp1583
sI3026603044
(dp1584
g1487
(dp1585
ssI1369596122
(dp1586
sI68522205
(dp1587
g1524
(dp1588
ssI2441736416
(dp1589
sI247423201
(dp1590
g1343
(dp1591
ssI723525858
(dp1592
g1306
(dp1593
ssI240664803
(dp1594
sI4611184641
(dp1595
sI813286
(dp1596
g1286
(g1288
S'\xc1\xac5r\x00\x00\x00\x00'
tRp1597
(dp1598
ssI896980623809818624
(dp1599
sI21332200
(dp1600
g1434
(dp1601
ssI139092348
(dp1602
g1325
(dp1603
ssI120004844
(dp1604
sI1345476306
(dp1605
g1286
(g1288
S'\xea\xbd[\x1e\x01\x00\x00\x00'
tRp1606
(dp1607
ssI855999418411208704
(dp1608
sI381868271
(dp1609
sI22425840
(dp1610
g1316
(dp1611
ssI40814683
(dp1612
g1356
(dp1613
ssI837883810356334593
(dp1614
sI197624060
(dp1615
g1332
(dp1616
ssI737233125361750016
(dp1617
sI150317310
(dp1618
sI434829567
(dp1619
g1462
(dp1620
ssI197742170
(dp1621
g1364
(dp1622
ssI762396950339747840
(dp1623
sI720293443260456960
(dp1624
g1309
(dp1625
ssI417650980
(dp1626
sI96071944
(dp1627
g1289
(dp1628
ssI29442313
(dp1629
I863291154556624896
(dp1630
sI906589963206184961
(dp1631
sI906590897546166274
(dp1632
sI906590151605751808
(dp1633
sI906589926510260225
(dp1634
sg1336
(dp1635
sI906289871764963328
(dp1636
sI906590687491006464
(dp1637
sI906589970009346055
(dp1638
sI2843515318
(dp1639
sI18442178
(dp1640
sI124963911
(dp1641
sI906589376746008576
(dp1642
sI906590929724825600
(dp1643
sI906590421572186112
(dp1644
sg1371
(dp1645
sI906590875853058048
(dp1646
sI906590820656173056
(dp1647
sI906590617119080448
(dp1648
sI906590003328937984
(dp1649
sI906590770685108224
(dp1650
sI906590318207881218
(dp1651
ssI14206795
(dp1652
sI14362891
(dp1653
g1419
(dp1654
ssI564173073
(dp1655
g1430
(dp1656
ssI14749971
(dp1657
g1462
(dp1658
ssI40814871
(dp1659
sI92428568
(dp1660
g1343
(dp1661
ssI197574940
(dp1662
I197517921
(dp1663
sI197752508
(dp1664
sI118896517
(dp1665
sI108648487
(dp1666
sI197600424
(dp1667
sI260842234
(dp1668
sI197567914
(dp1669
sI197592135
(dp1670
sI118818125
(dp1671
sI122339183
(dp1672
sI197726728
(dp1673
sI236631986
(dp1674
sI52120149
(dp1675
sI197336641
(dp1676
sI248699593
(dp1677
sI1243555962
(dp1678
sI197586172
(dp1679
sI118663997
(dp1680
sI197660958
(dp1681
sI197638271
(dp1682
ssI892404605983870977
(dp1683
sI197660958
(dp1684
I721519833561477120
(dp1685
sI329519267
(dp1686
sI197680102
(dp1687
sI607651974
(dp1688
sI197687975
(dp1689
sI202258185
(dp1690
sI117269671
(dp1691
sI431413036
(dp1692
sI628237198
(dp1693
sI381868271
(dp1694
sI189293091
(dp1695
sI197553874
(dp1696
sI374481331
(dp1697
sI335287726
(dp1698
sI277948950
(dp1699
sI143303257
(dp1700
sI82071897
(dp1701
sI813750042
(dp1702
sI191450458
(dp1703
sI418991709
(dp1704
ssI191004170
(dp1705
g1286
(g1288
S'YQ\xe4\x04\x00\x00\x00\x00'
tRp1706
(dp1707
ssI814231264765026305
(dp1708
g1385
(dp1709
ssI972558726
(dp1710
g1413
(dp1711
ssI9300262
(dp1712
g1379
(dp1713
ssI906582360405278720
(dp1714
sI3398633772
(dp1715
sI1250322734
(dp1716
g1343
(dp1717
ssI197634351
(dp1718
g1332
(dp1719
ssI26102066
(dp1720
g1332
(dp1721
ssI468640052
(dp1722
g1350
(dp1723
ssI197570872
(dp1724
g1364
(dp1725
ssI11348282
(dp1726
g1313
(dp1727
ssI307423967
(dp1728
g1325
(dp1729
ssI40815039
(dp1730
sI355367229
(dp1731
sI741293278658592768
(dp1732
sI388677953
(dp1733
sI46541122
(dp1734
I433741920
(dp1735
sI900119151372492801
(dp1736
sI3486152835
(dp1737
sI594874694
(dp1738
sI828051573725134848
(dp1739
sI736763562530471937
(dp1740
sI2881274440
(dp1741
sI171020169
(dp1742
sI882645123196231680
(dp1743
sI1646934600
(dp1744
sI3398633772
(dp1745
sI3643403789
(dp1746
sI1333509038
(dp1747
sI15416816
(dp1748
sI2257558088
(dp1749
sI1022382600
(dp1750
sI2927031541
(dp1751
sI446620951
(dp1752
sI858940238273683456
(dp1753
sI817873519954587653
(dp1754
ssI827078814555578369
(dp1755
sI33667397
(dp1756
sI594874694
(dp1757
sI48996679
(dp1758
I808025618239475712
(dp1759
sI40815617
(dp1760
sI40814667
(dp1761
sI40814565
(dp1762
sI398660294
(dp1763
sI40815777
(dp1764
sI40814607
(dp1765
sI40815337
(dp1766
sI40815563
(dp1767
sI40815515
(dp1768
sI40814319
(dp1769
sI40814261
(dp1770
sI40814871
(dp1771
sI40815253
(dp1772
sI40814121
(dp1773
sI40815151
(dp1774
sI40815039
(dp1775
sI575663123
(dp1776
sI40815581
(dp1777
sI40814591
(dp1778
ssI2257558088
(dp1779
sI4448844105
(dp1780
sI906133598553681920
(dp1781
sI2198878544
(dp1782
sI1627820371
(dp1783
g1382
(dp1784
ssI57334102
(dp1785
g1430
(dp1786
ssI55064920
(dp1787
I740597986846203904
(dp1788
sI905742450274082816
(dp1789
sI627463714
(dp1790
sI240664803
(dp1791
sI211648886
(dp1792
sI884677621547757568
(dp1793
sI2697757255
(dp1794
sI2717044682
(dp1795
sI376077163
(dp1796
sI266420236
(dp1797
sI223671790
(dp1798
sI2590257072
(dp1799
sI2277106547
(dp1800
sI20316308
(dp1801
sI822844948433301504
(dp1802
sI14067639
(dp1803
sI20490840
(dp1804
sI780186726228750336
(dp1805
sI104016988
(dp1806
sI91942071
(dp1807
ssI82071897
(dp1808
I748856604045389824
(dp1809
sI2441736416
(dp1810
sI84289378
(dp1811
sI2399120804
(dp1812
sI2153229686
(dp1813
sI362438233
(dp1814
sI828052364
(dp1815
sI518439339
(dp1816
sI114644300
(dp1817
sI1164547650
(dp1818
sI2880324494
(dp1819
sI317164240
(dp1820
sI132489842
(dp1821
sI202287605
(dp1822
sI2714472342
(dp1823
sI117278313
(dp1824
sI25959064
(dp1825
sI517675769
(dp1826
sI126595195
(dp1827
sI1513638493
(dp1828
ssI2508941658
(dp1829
g1606
(dp1830
ssI4871584091
(dp1831
sI30358586
(dp1832
sI533029214
(dp1833
sI501270879
(dp1834
g1606
(dp1835
ssI65069408
(dp1836
g1406
(dp1837
ssI906583761285996544
(dp1838
sI3146115426
(dp1839
g1286
(g1288
S'\x00`\xd4\x14TR\xca\t'
tRp1840
(dp1841
ssI1020058453
(dp1842
g1487
(dp1843
ssI95674729
(dp1844
g1306
(dp1845
ssI104063340
(dp1846
g1406
(dp1847
ssI905180324937785345
(dp1848
sI906588868471902208
(dp1849
sI787772328398692352
(dp1850
sI637196658
(dp1851
g1434
(dp1852
ssI751110996559814657
(dp1853
g1490
(dp1854
ssI211648886
(dp1855
sI107037417
(dp1856
sI267338104
(dp1857
g1476
(dp1858
ssI30663036
(dp1859
sI16249213
(dp1860
g1289
(dp1861
ssI43139414
(dp1862
g1382
(dp1863
ssI2155579778
(dp1864
sI804942511718461440
(dp1865
g1299
(dp1866
ssI40814453
(dp1867
g1356
(dp1868
ssI828347623098560512
(dp1869
sI101132353
(dp1870
sI217749896
(dp1871
g1286
(g1288
S'8\xdb\xd6r\x00\x00\x00\x00'
tRp1872
(dp1873
ssI3213163534
(dp1874
sI864470444245757952
(dp1875
I801897909725917184
(dp1876
sI863439402357411840
(dp1877
sI824640611441606658
(dp1878
sI862729021557223425
(dp1879
sI3236360620
(dp1880
sI1267375032
(dp1881
ssI40814989
(dp1882
g1356
(dp1883
ssI208232847
(dp1884
g1406
(dp1885
ssI110365072
(dp1886
g1487
(dp1887
ssI92449170
(dp1888
sI785044227474485252
(dp1889
sI479863188
(dp1890
g1325
(dp1891
ssI30364057
(dp1892
g1313
(dp1893
ssI114644300
(dp1894
g1706
(dp1895
ssI846380717349240833
(dp1896
sI40814319
(dp1897
sI477667743
(dp1898
g1353
(dp1899
ssI1001048480
(dp1900
sI222726561
(dp1901
g1332
(dp1902
ssI387996066
(dp1903
g1306
(dp1904
ssI182755747
(dp1905
g1706
(dp1906
ssI779613876228730881
(dp1907
g1416
(dp1908
ssI890502325474865152
(dp1909
sI808025618239475712
(dp1910
sI89506218
(dp1911
g1343
(dp1912
ssI124963911
(dp1913
sI1169637804
(dp1914
g1375
(dp1915
ssI365763314
(dp1916
g1487
(dp1917
ssI474293689
(dp1918
g1343
(dp1919
ssI812462389991854080
(dp1920
sI471287735
(dp1921
g1325
(dp1922
ssI2843515318
(dp1923
sI3882117561
(dp1924
sI570522042
(dp1925
g1306
(dp1926
ssI3236360620
(dp1927
sI128148127
(dp1928
g1364
(dp1929
ssI15950269
(dp1930
g1419
(dp1931
ssI197589439
(dp1932
g1332
(dp1933
ssI37999041
(dp1934
g1379
(dp1935
ssI1306925508
(dp1936
g1316
(dp1937
ssI3247776197
(dp1938
sI2250760609
(dp1939
sI716510667243651072
(dp1940
sI416676471
(dp1941
sI85772748
(dp1942
g1325
(dp1943
ssI185510351
(dp1944
g1364
(dp1945
ssI192862672
(dp1946
g1476
(dp1947
ssI1461170642
(dp1948
sI873261523
(dp1949
g1430
(dp1950
ssI736763562530471937
(dp1951
g1416
(dp1952
ssI15933910
(dp1953
g1406
(dp1954
ssI4782551
(dp1955
g1872
(dp1956
ssI254337496
(dp1957
g1524
(dp1958
ssI118115748
(dp1959
g1336
(dp1960
ssI963637723
(dp1961
sI104673756
(dp1962
I906124632155181056
(dp1963
sI801244331487219712
(dp1964
sI3087727522
(dp1965
sI838142099035996161
(dp1966
sI4025225381
(dp1967
sI894352469744001024
(dp1968
sI891796727791005697
(dp1969
sI107037417
(dp1970
sI1322416681
(dp1971
sI244376426
(dp1972
sI800094690666131456
(dp1973
sI70544738
(dp1974
sI18912401
(dp1975
sI899192137845264384
(dp1976
sI165204800
(dp1977
sI22986121
(dp1978
sI55064920
(dp1979
sI4871584091
(dp1980
sI2159138301
(dp1981
sI2457429986
(dp1982
ssI588200416
(dp1983
g1325
(dp1984
ssI906590655278919681
(dp1985
sI80417598
(dp1986
g1706
(dp1987
ssI55181796
(dp1988
g1606
(dp1989
ssI165549137
(dp1990
sI147335250
(dp1991
g1840
(dp1992
ssI811229675758505984
(dp1993
g1382
(dp1994
ssI755821622641254401
(dp1995
g1413
(dp1996
ssI187881969
(dp1997
g1350
(dp1998
ssI285846002
(dp1999
sI1261451576
(dp2000
sI202287605
(dp2001
sI622097143
(dp2002
g1306
(dp2003
ssI750317076112375808
(dp2004
sI214017108
(dp2005
g1382
(dp2006
ssI13134332
(dp2007
g1419
(dp2008
ssI325890557
(dp2009
sI56769022
(dp2010
g1332
(dp2011
ssI893765510285983744
(dp2012
sI549925200
(dp2013
sI359340545
(dp2014
g1406
(dp2015
ssI518439339
(dp2016
sI8442372
(dp2017
g1430
(dp2018
ssI44998279
(dp2019
sI906588016004579328
(dp2020
sI197726728
(dp2021
sI9376172
(dp2022
g1340
(dp2023
ssI56443153
(dp2024
g1382
(dp2025
ssI901821863411810304
(dp2026
sI2284427792
(dp2027
g1487
(dp2028
ssI563946002
(dp2029
sI197553874
(dp2030
sI55835157
(dp2031
g1385
(dp2032
ssI277948950
(dp2033
sI2181560068
(dp2034
sI1404590618
(dp2035
g1462
(dp2036
sg1375
(dp2037
ssI182837791
(dp2038
g1332
(dp2039
ssI857543865724809217
(dp2040
sI4833544738
(dp2041
sI189293091
(dp2042
g1364
(dp2043
ssI838142099035996161
(dp2044
I1694939840
(dp2045
sI808694770835083265
(dp2046
sI240664803
(dp2047
sI885743171845488641
(dp2048
sI16631045
(dp2049
sI879451342372302848
(dp2050
sI880580574569570304
(dp2051
sI51879018
(dp2052
sI890502325474865152
(dp2053
sI855999418411208704
(dp2054
sI3082022719
(dp2055
sI3340073541
(dp2056
sI810685395377725440
(dp2057
sI191656579
(dp2058
sI886318841260802049
(dp2059
sI3013145413
(dp2060
sI2794535639
(dp2061
sI1924071992
(dp2062
sI1453960987
(dp2063
sI712602271
(dp2064
ssI1689702150
(dp2065
g1606
(dp2066
ssI2840744001
(dp2067
g1393
(dp2068
ssI906590687491006464
(dp2069
sI1322416681
(dp2070
sI19697415
(dp2071
g1597
(dp2072
ssI475802156
(dp2073
g1309
(dp2074
ssI44196397
(dp2075
g1313
(dp2076
sg1413
(dp2077
ssI16399908
(dp2078
g1476
(dp2079
ssI374481331
(dp2080
sI84289378
(dp2081
g1706
(dp2082
ssI15350325
(dp2083
g1419
(dp2084
ssI15143478
(dp2085
g1313
(dp2086
ssI1924071992
(dp2087
sI554666554
(dp2088
g1606
(dp2089
ssI3297575484
(dp2090
g1350
(dp2091
ssI77316669
(dp2092
g1406
(dp2093
ssI2191403582
(dp2094
g1393
(dp2095
ssI78010944
(dp2096
g1382
(dp2097
ssI5815392
(dp2098
sI791408342732189696
(dp2099
sI3340073541
(dp2100
sI38617670
(dp2101
g1350
(dp2102
ssI2697757255
(dp2103
sI1646934600
(dp2104
sI3345533513
(dp2105
sI4643811147
(dp2106
g1289
(dp2107
ssI16171595
(dp2108
sI255388236
(dp2109
g1487
(dp2110
ssI386263630
(dp2111
g1430
(dp2112
ssI98554447
(dp2113
g1353
(dp2114
ssI109998675
(dp2115
g1364
(dp2116
ssI52120149
(dp2117
g1597
(dp2118
ssI2768703929
(dp2119
sI1521687128
(dp2120
sI143303257
(dp2121
I741293278658592768
(dp2122
sI815271130386743297
(dp2123
sI994338883
(dp2124
sI2892875619
(dp2125
sI2461252965
(dp2126
sI359540454
(dp2127
sI4611184641
(dp2128
sI3135860744
(dp2129
sI3063995915
(dp2130
sI81730445
(dp2131
sI2169945965
(dp2132
sI2387824872
(dp2133
sI2458762802
(dp2134
sI2830667667
(dp2135
sI162205472
(dp2136
sI2341332625
(dp2137
sI1932676536
(dp2138
sI2874539538
(dp2139
sI302473852
(dp2140
sI123418655
(dp2141
ssI545561179
(dp2142
g1350
(dp2143
ssI1513638493
(dp2144
sI90098789
(dp2145
g1487
(dp2146
ssI22667872
(dp2147
sI197517921
(dp2148
sI822376728723070976
(dp2149
sI97522487
(dp2150
g1343
(dp2151
ssI1908105828
(dp2152
g1462
(dp2153
ssI21918310
(dp2154
g1379
(dp2155
ssI891081498790703104
(dp2156
sI19397785
(dp2157
g1371
(dp2158
ssI755733097
(dp2159
g1416
(dp2160
ssI40962624
(dp2161
sI376077163
(dp2162
sI197507697
(dp2163
g1364
(dp2164
ssI61352185
(dp2165
g1299
(dp2166
ssI906585619983454208
(dp2167
sI81801844
(dp2168
sI817788623361863680
(dp2169
sI1228243574
(dp2170
g1430
(dp2171
ssI108628599
(dp2172
g1353
(dp2173
ssI794874367587057665
(dp2174
g1382
(dp2175
ssI53338746
(dp2176
g1524
(dp2177
ssI255982015
(dp2178
sI302473852
(dp2179
sI51879018
(dp2180
sI799714384096280580
(dp2181
g1416
(dp2182
ssI779956501754605568
(dp2183
sI793738137138847744
(dp2184
sI191656579
(dp2185
sI130957956
(dp2186
g1413
(dp2187
ssI548625029
(dp2188
g1289
(dp2189
ssI899192137845264384
(dp2190
sI297996937
(dp2191
g1382
(dp2192
ssI2908510858
(dp2193
g1375
(dp2194
ssI1628404363
(dp2195
g1490
(dp2196
ssI2806112911
(dp2197
sI16278864
(dp2198
sI410282644
(dp2199
g1416
(dp2200
ssI20109973
(dp2201
g1462
(dp2202
ssI58503830
(dp2203
sI37413528
(dp2204
g1872
(dp2205
ssI904066506346123264
(dp2206
sI1962661579
(dp2207
g1462
(dp2208
ssI76038813
(dp2209
g1487
(dp2210
ssI196168350
(dp2211
g1309
(dp2212
ssI712602271
(dp2213
sI1453960987
(dp2214
sI808694770835083265
(dp2215
sI906589376746008576
(dp2216
sI753136193190109184
(dp2217
sI2888956584
(dp2218
sI210428700
(dp2219
g1364
(dp2220
ssI866340866738323456
(dp2221
sI1636590253
(dp2222
g1313
(dp2223
ssI873917041048256512
(dp2224
sI262439605
(dp2225
sI858794683
(dp2226
g1350
(dp2227
ssI1694939840
(dp2228
sI243563201
(dp2229
g1340
(dp2230
ssI828028274047668226
(dp2231
I898059854006308864
(dp2232
sI817218652391034880
(dp2233
sI149367842
(dp2234
sI892404605983870977
(dp2235
sI904932281285881856
(dp2236
sI702117062437695489
(dp2237
sI4448844105
(dp2238
sI791408342732189696
(dp2239
sI81947660
(dp2240
sI903475806655045633
(dp2241
sI709774998874013696
(dp2242
sI43874512
(dp2243
sI898345680623857665
(dp2244
sI28754963
(dp2245
sI4615888755
(dp2246
sI330509973
(dp2247
sI859871632222937088
(dp2248
sI28405767
(dp2249
sI4881298269
(dp2250
sI901821863411810304
(dp2251
ssI15334083
(dp2252
g1419
(dp2253
ssI98294468
(dp2254
g1490
(dp2255
ssI3150179013
(dp2256
sI3437747915
(dp2257
g1385
(dp2258
ssI18879176
(dp2259
sI248699593
(dp2260
sI747807250819981312
(dp2261
g1375
(dp2262
ssI7008972
(dp2263
g1430
(dp2264
ssI101331661
(dp2265
g1413
(dp2266
ssI863291154556624896
(dp2267
sI317164240
(dp2268
sI45363552
(dp2269
g1325
(dp2270
ssI16578138
(dp2271
g1419
(dp2272
ssI88621782
(dp2273
g1430
(dp2274
ssI2794535639
(dp2275
sI41634520
(dp2276
g1309
(dp2277
ssI80366372
(dp2278
g1434
(dp2279
ssI906590875853058048
(dp2280
sI718519004
(dp2281
g1353
(dp2282
ssI52264741
(dp2283
g1606
(dp2284
ssI126595195
(dp2285
sI2903979971
(dp2286
g1340
(dp2287
ssI4704895717
(dp2288
g1385
(dp2289
ssI740825976213491712
(dp2290
sI712557069824630784
(dp2291
g1382
(dp2292
ssI349022952
(dp2293
g1406
(dp2294
ssI17226473
(dp2295
sI824640611441606658
(dp2296
g1490
(dp2297
ssI953959148
(dp2298
g1343
(dp2299
ssI2403937010
(dp2300
sI759251
(dp2301
g1371
(dp2302
ssI1258075795
(dp2303
sI2917670014
(dp2304
g1413
(dp2305
ssI374258422
(dp2306
sI43680503
(dp2307
g1872
(dp2308
ssI1330457336
(dp2309
g1371
(dp2310
ssI517675769
(dp2311
sI260842234
(dp2312
sI197638271
(dp2313
sI14758654
(dp2314
g1419
(dp2315
ssI859659008
(dp2316
sI883592400752566272
(dp2317
sI18253611
(dp2318
g1487
(dp2319
ssI906590850985058304
(dp2320
sI233149192
(dp2321
g1840
(dp2322
ssI854552997707337729
(dp2323
g1490
(dp2324
ssI271475466
(dp2325
sI106837463
(dp2326
g1406
(dp2327
ssI1436549250
(dp2328
g1413
(dp2329
ssI10263312
(dp2330
g1419
(dp2331
ssI146522898
(dp2332
sI113130259
(dp2333
g1524
(dp2334
ssI868637460
(dp2335
g1289
(dp2336
ssI1878473497
(dp2337
g1430
(dp2338
ssI865334042
(dp2339
g1350
(dp2340
ssI12044602
(dp2341
g1382
(dp2342
ssI4830585628
(dp2343
g1872
(dp2344
sg1385
(dp2345
ssI705780698788073472
(dp2346
sI4002649757
(dp2347
g1393
(dp2348
ssI100827937
(dp2349
g1413
(dp2350
ssI994338883
(dp2351
sI35001979
(dp2352
g1524
(dp2353
ssI859543363606896641
(dp2354
g1289
(dp2355
ssI607651974
(dp2356
sI87823144
(dp2357
I885393827103727616
(dp2358
sI842714107178450944
(dp2359
sI788983419199852544
(dp2360
sI885697397564866564
(dp2361
sI796902352963764224
(dp2362
sI864470444245757952
(dp2363
sI2888956584
(dp2364
sI17226473
(dp2365
sI48041163
(dp2366
sI211037906
(dp2367
sI860137000686338048
(dp2368
sI21878736
(dp2369
sI46123992
(dp2370
sI777341781360926720
(dp2371
sI2580110263
(dp2372
sI1587890072
(dp2373
sI809920015298424832
(dp2374
sI228621136
(dp2375
sI1873312735
(dp2376
sI762396950339747840
(dp2377
ssI861745475908775936
(dp2378
sI359572266
(dp2379
g1430
(dp2380
ssI863044429615169536
(dp2381
sI49535791
(dp2382
g1524
(dp2383
ssI3755478314
(dp2384
g1706
(dp2385
ssI2382904118
(dp2386
sI35430180
(dp2387
g1350
(dp2388
ssI1926683448
(dp2389
I866340866738323456
(dp2390
sI865721143369506816
(dp2391
sI3274699908
(dp2392
sI3270699990
(dp2393
sI822376728723070976
(dp2394
sI1087440553
(dp2395
sI3449148695
(dp2396
sI567989213
(dp2397
sI376967376
(dp2398
sI3296742865
(dp2399
sI3150179013
(dp2400
sI831210356
(dp2401
sI519753341
(dp2402
sI4916410486
(dp2403
sI705466812717096960
(dp2404
sI3882117561
(dp2405
sI3417556319
(dp2406
sI355367229
(dp2407
sI2191169342
(dp2408
sI716510667243651072
(dp2409
ssI2331859771
(dp2410
sI513053500
(dp2411
g1343
(dp2412
ssI118663997
(dp2413
I273269602
(dp2414
sI417650980
(dp2415
sI234941142
(dp2416
sI416647783
(dp2417
sI14850088
(dp2418
sI79386044
(dp2419
sI172774762
(dp2420
sI18906599
(dp2421
sI287624578
(dp2422
sI115414863
(dp2423
sI165549137
(dp2424
sI98314354
(dp2425
sI271475466
(dp2426
sI143024790
(dp2427
sI416676471
(dp2428
sI31040536
(dp2429
sI49879012
(dp2430
sI963637723
(dp2431
sI286261212
(dp2432
sI77216701
(dp2433
ssI2542375742
(dp2434
g1313
(dp2435
ssI135439167
(dp2436
g1332
(dp2437
ssI165204800
(dp2438
sI29471554
(dp2439
g1872
(dp2440
ssI16264003
(dp2441
g1353
(dp2442
ssI3013145413
(dp2443
sI4005088055
(dp2444
sI32774989
(dp2445
sI20880206
(dp2446
g1375
(dp2447
ssI11799232
(dp2448
g1419
(dp2449
ssI228621136
(dp2450
sI40815441
(dp2451
g1356
(dp2452
ssI785460842955313154
(dp2453
sI13212502
(dp2454
g1379
(dp2455
ssI784786703923970049
(dp2456
g1393
(dp2457
ssI1969984345
(dp2458
g1416
(dp2459
ssI16206682
(dp2460
g1434
(dp2461
ssI751721055031586816
(dp2462
g1872
(dp2463
ssI4881298269
(dp2464
sI147409758
(dp2465
g1524
(dp2466
ssI906588962977931264
(dp2467
sI273269602
(dp2468
g1476
(dp2469
ssI435757008
(dp2470
sI1667921821
(dp2471
g1706
(dp2472
ssI50393960
(dp2473
g1313
(dp2474
sg1371
(dp2475
ssI244376426
(dp2476
sI49740651
(dp2477
sI2204463980
(dp2478
g1289
(dp2479
ssI197687975
(dp2480
sI890281627540213760
(dp2481
g1316
(dp2482
ssI197498685
(dp2483
g1364
(dp2484
ssI3312810864
(dp2485
g1430
(dp2486
ssI30684018
(dp2487
g1416
(dp2488
ssI2277106547
(dp2489
sI831210356
(dp2490
sI3380173685
(dp2491
g1872
(dp2492
ssI852772124
(dp2493
g1606
(dp2494
ssI708556257041354752
(dp2495
sI1090378620
(dp2496
sI2269066730
(dp2497
g1385
(dp2498
ssI479826814
(dp2499
sI2452872000
(dp2500
sI889211931202117632
(dp2501
sI69421956
(dp2502
sI906590224695914496
(dp2503
sI18944903
(dp2504
g1393
(dp2505
ssI47455112
(dp2506
g1462
(dp2507
ssI1092006794
(dp2508
g1462
(dp2509
ssI75744139
(dp2510
g1490
(dp2511
ssI119016332
(dp2512
g1476
(dp2513
ssI81730445
(dp2514
sI628237198
(dp2515
I708556257041354752
(dp2516
sI101132353
(dp2517
sI828934258769158146
(dp2518
sI708217319130943488
(dp2519
sI2289143886
(dp2520
sI3301481896
(dp2521
sI3345533513
(dp2522
sI120004844
(dp2523
sI3213163534
(dp2524
sI134891503
(dp2525
sI203980008
(dp2526
sI3157312960
(dp2527
sI3001271422
(dp2528
sI18879176
(dp2529
sI2452872000
(dp2530
sI1261451576
(dp2531
sI482429356
(dp2532
sI29731772
(dp2533
sI533029214
(dp2534
sI3150275487
(dp2535
ssI906590617119080448
(dp2536
sI3146359696
(dp2537
g1606
(dp2538
ssI47813521
(dp2539
I906588368108224512
(dp2540
sI906588395492794368
(dp2541
sI826217983290769410
(dp2542
sI906586621042200577
(dp2543
sI906587332157026309
(dp2544
sI904929019136704512
(dp2545
sI906588853120720897
(dp2546
sI896980623809818624
(dp2547
sI906587359768203266
(dp2548
sI906585619983454208
(dp2549
sI906577131869806594
(dp2550
sI906586171278585857
(dp2551
sI906587332031246338
(dp2552
sI906588868471902208
(dp2553
sI906587334501695489
(dp2554
sI1521687128
(dp2555
sI906582360405278720
(dp2556
sI30663036
(dp2557
sI906133598553681920
(dp2558
sI906587274858692608
(dp2559
ssI2293549970
(dp2560
sI128052116
(dp2561
g1332
(dp2562
ssI364891289
(dp2563
g1382
(dp2564
ssI80077721
(dp2565
g1340
(dp2566
ssI60865434
(dp2567
g1325
(dp2568
ssI40815515
(dp2569
sI158698396
(dp2570
g1343
(dp2571
ssI2164583325
(dp2572
g1462
(dp2573
ssI1522620229
(dp2574
sI748856604045389824
(dp2575
sI3087727522
(dp2576
sI822215673812119553
(dp2577
g1309
(dp2578
sg1353
(dp2579
ssI329519267
(dp2580
sI48878503
(dp2581
g1462
(dp2582
ssI47034524
(dp2583
g1434
(dp2584
ssI1548475308
(dp2585
g1606
(dp2586
ssI1626421878
(dp2587
sI1333509038
(dp2588
sI16896157
(dp2589
g1419
(dp2590
ssI117605296
(dp2591
g1332
(dp2592
ssI57582514
(dp2593
sI4447527859
(dp2594
g1840
(dp2595
ssI2580110263
(dp2596
sI1267375032
(dp2597
g1490
(dp2598
ssI29731772
(dp2599
sI119360445
(dp2600
g1462
(dp2601
ssI45794805
(dp2602
g1306
(dp2603
ssI149726145
(dp2604
g1299
(dp2605
ssI906587332031246338
(dp2606
sI788983419199852544
(dp2607
sI245963716
(dp2608
g1309
(dp2609
ssI40815777
(dp2610
g1356
(dp2611
ssI35171273
(dp2612
g1606
(dp2613
ssI40815563
(dp2614
sI155659213
(dp2615
g1382
(dp2616
ssI606667727
(dp2617
g1289
(dp2618
ssI40815253
(dp2619
sI34743251
(dp2620
g1313
(dp2621
ssI398660294
(dp2622
sI3270699990
(dp2623
sI19319767
(dp2624
sI46123992
(dp2625
sI48071844
(dp2626
g1524
(dp2627
sg1340
(dp2628
sg1379
(dp2629
ssI380814299
(dp2630
g1340
(dp2631
ssI18549724
(dp2632
g1462
(dp2633
ssI567989213
(dp2634
sI402957663
(dp2635
g1434
(dp2636
ssI1873312735
(dp2637
sI33502178
(dp2638
g1325
(dp2639
ssI801897909725917184
(dp2640
g1490
(dp2641
ssI3183850469
(dp2642
sI2543408102
(dp2643
g1289
(dp2644
ssI3562471
(dp2645
g1406
(dp2646
ssI18691048
(dp2647
g1434
(dp2648
ssI40815593
(dp2649
g1356
(dp2650
ssI42738666
(dp2651
g1316
(dp2652
ssI399358955
(dp2653
g1606
(dp2654
ssI87401598
(dp2655
g1706
(dp2656
ssI812420862272032768
(dp2657
g1393
(dp2658
ssI149180925
(dp2659
g1379
(dp2660
ssI840449932108558336
(dp2661
g1371
(dp2662
ssI30944245
(dp2663
g1490
(dp2664
ssI230691836
(dp2665
g1476
(dp2666
ssI4708866923
(dp2667
g1872
(dp2668
ssI23346175
(dp2669
sI40815617
(dp2670
sI16303106
(dp2671
g1597
(dp2672
ssI187119787
(dp2673
g1476
(dp2674
ssI287482885
(dp2675
g1476
(dp2676
ssI906584587815583744
(dp2677
sI595473415
(dp2678
g1430
(dp2679
ssI115364872
(dp2680
g1364
(dp2681
ssI16442379
(dp2682
g1379
(dp2683
ssI396645388
(dp2684
g1416
(dp2685
ssI40815629
(dp2686
I14366112
(dp2687
sI2250760609
(dp2688
sI2990264100
(dp2689
sI374258422
(dp2690
sI48996679
(dp2691
sI14206795
(dp2692
sI92449170
(dp2693
sI57582514
(dp2694
sI146522898
(dp2695
sI52120149
(dp2696
sI266734646
(dp2697
sI64997151
(dp2698
ssI803685165851615232
(dp2699
sI17001490
(dp2700
g1462
(dp2701
ssI149099539
(dp2702
g1606
(dp2703
ssI43874512
(dp2704
sI906587274858692608
(dp2705
sI879451342372302848
(dp2706
sI2880685079
(dp2707
sI31040536
(dp2708
sI53480473
(dp2709
g1306
(dp2710
ssI22684698
(dp2711
g1343
(dp2712
ssI259904541
(dp2713
g1476
(dp2714
ssI57396255
(dp2715
g1316
(dp2716
ssI1323549008
(dp2717
sI149367842
(dp2718
sI906587334501695489
(dp2719
sI2511471793
(dp2720
g1524
(dp2721
ssI21601320
(dp2722
g1313
(dp2723
ssI52544275
(dp2724
g1299
(dp2725
ssI127512071
(dp2726
g1476
(dp2727
ssI267512876
(dp2728
g1340
(dp2729
ssI886905865483292673
(dp2730
sI742042196803739649
(dp2731
g1413
(dp2732
ssI755436549416902656
(dp2733
sI1022382600
(dp2734
sI3308659762
(dp2735
sI2151498931
(dp2736
g1393
(dp2737
ssI266734646
(dp2738
sI705466812717096960
(dp2739
I873917041048256512
(dp2740
sI904261825864269825
(dp2741
sI2212489284
(dp2742
sI755436549416902656
(dp2743
sI837883810356334593
(dp2744
sI2675288072
(dp2745
sI3409521898
(dp2746
sI48055626
(dp2747
sI4366246647
(dp2748
sI388677953
(dp2749
sI803685165851615232
(dp2750
sI20963090
(dp2751
sI1001048480
(dp2752
sI2208812724
(dp2753
sI731342744157741056
(dp2754
sI792783670033743876
(dp2755
sI4171431515
(dp2756
sI48927836
(dp2757
sI805538910394785793
(dp2758
sI255982015
(dp2759
ssI904261825864269825
(dp2760
sI900122114388357126
(dp2761
sI302593083
(dp2762
g1375
(dp2763
ssI2917960765
(dp2764
sI18254911
(dp2765
g1487
(dp2766
ssI1007310656
(dp2767
g1343
(dp2768
ssI3408938848
(dp2769
g1393
(dp2770
ssI906590897546166274
(dp2771
sI411405379
(dp2772
g1340
(dp2773
ssI2387824872
(dp2774
sI1832479814
(dp2775
g1606
(dp2776
ssI197592135
(dp2777
sI95371788
(dp2778
g1706
(dp2779
ssI14857290
(dp2780
g1313
(dp2781
ssI91942071
(dp2782
sI875024040137773056
(dp2783
sI2771848270
(dp2784
sI36387920
(dp2785
sI1371618385
(dp2786
g1398
(dp2787
sg1375
(dp2788
ssI205019081
(dp2789
g1306
(dp2790
ssI63692643
(dp2791
g1336
(dp2792
ssI806798260094451712
(dp2793
g1385
(dp2794
ssI256073230
(dp2795
g1490
(dp2796
ssI792783670033743876
(dp2797
sI28405767
(dp2798
sI50712079
(dp2799
g1336
(dp2800
ssI104016988
(dp2801
sI280896606
(dp2802
g1350
(dp2803
ssI261090400
(dp2804
g1406
(dp2805
ssI78525538
(dp2806
g1316
(dp2807
ssI2186755171
(dp2808
sI704505328956784641
(dp2809
g1413
(dp2810
ssI855488685931999232
(dp2811
g1872
(dp2812
ssI103622347
(dp2813
g1606
(dp2814
ssI799294889540354048
(dp2815
g1872
(dp2816
ssI37610602
(dp2817
g1524
(dp2818
ssI859871632222937088
(dp2819
sI2945101330
(dp2820
g1336
(dp2821
ssI234941142
(dp2822
sI33989747
(dp2823
g1316
(dp2824
ssI2169945965
(dp2825
sI829459635446771712
(dp2826
sI906590770685108224
(dp2827
I2186755171
(dp2828
ssI482429356
(dp2829
sI593810556
(dp2830
g1325
(dp2831
ssI14306430
(dp2832
g1289
(dp2833
ssI15099007
(dp2834
g1434
(dp2835
ssI181542016
(dp2836
g1332
(dp2837
ssI849039681996165120
(dp2838
g1289
(dp2839
ssI906590820656173056
(dp2840
sI906590566762385408
(dp2841
sI701069613627535362
(dp2842
g1840
(dp2843
ssI24329353
(dp2844
sI23567501
(dp2845
g1350
(dp2846
ssI136729742
(dp2847
g1336
(dp2848
ssI18220175
(dp2849
g1406
(dp2850
ssI18912401
(dp2851
sI906590929724825600
(dp2852
I898811912699482112
(dp2853
sI2186755171
(dp2854
ssI93293716
(dp2855
g1524
(dp2856
sg1340
(dp2857
ssI3448888469
(dp2858
sI702235953470038016
(dp2859
g1299
(dp2860
ssI4707812505
(dp2861
g1840
(dp2862
ssI752622469144510464
(dp2863
g1393
(dp2864
ssI33041569
(dp2865
g1840
(dp2866
ssI206570659
(dp2867
g1490
(dp2868
ssI906586621042200577
(dp2869
sI880580574569570304
(dp2870
sI14873767
(dp2871
g1316
(dp2872
ssI197600424
(dp2873
sI188882089
(dp2874
g1343
(dp2875
ssI1164547650
(dp2876
sI906590755371626496
(dp2877
sI16020654
(dp2878
g1316
(dp2879
ssI2247355933
(dp2880
g1289
(dp2881
ssI242245578
(dp2882
g1382
(dp2883
ssI352672945
(dp2884
g1416
(dp2885
ssI40814033
(dp2886
g1356
(dp2887
ssI2292315569
(dp2888
g1393
(dp2889
ssI34184372
(dp2890
g1361
(dp2891
ssI3294868813
(dp2892
sI777341781360926720
(dp2893
sI24716475
(dp2894
g1430
(dp2895
ssI744621247
(dp2896
g1306
(dp2897
ssI1916120257
(dp2898
I46541122
(dp2899
sI52120149
(dp2900
ssI903019254102069250
(dp2901
sI815271130386743297
(dp2902
sI2880324494
(dp2903
sI69681697
(dp2904
g1476
(dp2905
ssI902869357298057216
(dp2906
sI973996236
(dp2907
g1490
(dp2908
ssI2252422987
(dp2909
g1379
(dp2910
ssI48041163
(dp2911
sI179850444
(dp2912
g1364
(dp2913
ssI406868514
(dp2914
g1306
(dp2915
ssI108698830
(dp2916
g1379
(dp2917
ssI15160529
(dp2918
g1434
(dp2919
ssI280130770
(dp2920
g1336
(dp2921
ssI10142932
(dp2922
sI379741390
(dp2923
sI7587032
(dp2924
g1375
(dp2925
ssI842423007834443777
(dp2926
g1340
(dp2927
ssI409486555
(dp2928
g1371
(dp2929
ssI821714293418758144
(dp2930
sI48360631
(dp2931
g1325
(dp2932
ssI40814117
(dp2933
g1356
(dp2934
ssI791810860431781888
(dp2935
g1393
(dp2936
ssI860840079195066368
(dp2937
sI4865836294
(dp2938
g1299
(dp2939
ssI1849075543
(dp2940
sI203980008
(dp2941
sI3409521898
(dp2942
sI863439402357411840
(dp2943
sI713048630173638656
(dp2944
g1434
(dp2945
ssI3001271422
(dp2946
sI46476526
(dp2947
g1430
(dp2948
ssI792868059836878850
(dp2949
sI813853845562466304
(dp2950
g1371
(dp2951
ssI481461757
(dp2952
g1336
(dp2953
ssI2927031541
(dp2954
sI19227177
(dp2955
g1316
(dp2956
ssI136499071
(dp2957
sI197586172
(dp2958
sI383031509
(dp2959
g1406
(dp2960
ssI706643098864988160
(dp2961
g1840
(dp2962
ssI134194433
(dp2963
g1430
(dp2964
ssI425819395
(dp2965
g1336
(dp2966
ssI197731588
(dp2967
g1364
(dp2968
ssI16631045
(dp2969
sI839351135131443200
(dp2970
sI45266183
(dp2971
g1371
(dp2972
ssI701725963
(dp2973
g1340
(dp2974
ssI900119151372492801
(dp2975
g1416
(dp2976
ssI277383725
(dp2977
g1476
(dp2978
ssI3449148695
(dp2979
sI813858525055172608
(dp2980
sI875313173083164673
(dp2981
sI2990264100
(dp2982
sI50769180
(dp2983
g1309
(dp2984
ssI19072286
(dp2985
g1336
(dp2986
ssI800494468310761472
(dp2987
g1872
(dp2988
ssI79923701
(dp2989
g1487
(dp2990
ssI906585765651652609
(dp2991
sI16714630
(dp2992
g1434
(dp2993
ssI816078756360097792
(dp2994
sI855756072
(dp2995
g1350
(dp2996
ssI18222378
(dp2997
g1299
(dp2998
ssI2458762802
(dp2999
sI150887728
(dp3000
g1706
(dp3001
ssI28880869
(dp3002
sI165297460
(dp3003
sI19397942
(dp3004
g1375
(dp3005
ssI18378044
(dp3006
g1316
(dp3007
ssI247459133
(dp3008
g1476
(dp3009
ssI861102310478548992
(dp3010
sI941686081
(dp3011
g1371
(dp3012
ssI906577131869806594
(dp3013
sI548687171
(dp3014
g1840
(dp3015
ssI21558596
(dp3016
sI37764422
(dp3017
g1309
(dp3018
ssI278240583
(dp3019
g1393
(dp3020
ssI872253703188774912
(dp3021
sI828052364
(dp3022
sI48055626
(dp3023
sI2980703969
(dp3024
sI8453452
(dp3025
g1361
(dp3026
ssI118818125
(dp3027
sI743211192823517184
(dp3028
g1487
(dp3029
ssI147961168
(dp3030
g1316
(dp3031
ssI335534204
(dp3032
g1371
(dp3033
ssI856646196378710017
(dp3034
g1413
(dp3035
ssI19586276
(dp3036
g1325
(dp3037
ssI805433385623568385
(dp3038
g1385
(dp3039
ssI92695098
(dp3040
g1706
(dp3041
ssI906590918307807232
(dp3042
sI811480199938396160
(dp3043
sI246248801
(dp3044
g1706
(dp3045
ssI70544738
(dp3046
I829789919744761856
(dp3047
sI898760444533288960
(dp3048
sI497250434
(dp3049
sI2872661847
(dp3050
sI21558596
(dp3051
sI779956501754605568
(dp3052
sI878604381050032129
(dp3053
sI872253703188774912
(dp3054
sI863044429615169536
(dp3055
sI828028274047668226
(dp3056
sI108698830
(dp3057
sI1300301
(dp3058
sI2772648048
(dp3059
sI840943865133703168
(dp3060
sI2293549970
(dp3061
sI112621492
(dp3062
sI1626421878
(dp3063
sI66467735
(dp3064
sI325890557
(dp3065
sI23346175
(dp3066
ssI20150502
(dp3067
g1379
(dp3068
ssI123418655
(dp3069
sI3152186729
(dp3070
g1413
(dp3071
ssI172774762
(dp3072
sI22203756
(dp3073
g1309
(dp3074
ssI252104045
(dp3075
g1340
(dp3076
ssI801244331487219712
(dp3077
sI810685395377725440
(dp3078
sI40815985
(dp3079
g1356
(dp3080
ssI228535666
(dp3081
g1313
(dp3082
ssI40815987
(dp3083
g1356
(dp3084
ssI19834228
(dp3085
g1430
(dp3086
ssI40815989
(dp3087
g1356
(dp3088
ssI2153229686
(dp3089
sI40815991
(dp3090
g1356
(dp3091
ssI3787536555
(dp3092
sI773522131393077248
(dp3093
sI40815999
(dp3094
g1356
(dp3095
ssI40816001
(dp3096
g1356
(dp3097
ssI287624578
(dp3098
sI2714472342
(dp3099
sI800094690666131456
(dp3100
sI270839361
(dp3101
g1325
(dp3102
ssI57335176
(dp3103
sI22986121
(dp3104
sI817218652391034880
(dp3105
sI890526296794685441
(dp3106
g1872
(dp3107
ssI2238324110
(dp3108
I856473488659537920
(dp3109
sI860070224820875265
(dp3110
sI16340480
(dp3111
sI2382904118
(dp3112
sI828347623098560512
(dp3113
sI846380717349240833
(dp3114
sI784401549778911232
(dp3115
sI49740651
(dp3116
sI48304141
(dp3117
sI753136193190109184
(dp3118
sI292146610
(dp3119
sI857543865724809217
(dp3120
sI942655830
(dp3121
sI2880685079
(dp3122
sI30358586
(dp3123
sI773397580051017728
(dp3124
sI859659008
(dp3125
sI897368871669084160
(dp3126
sI150317310
(dp3127
sI136499071
(dp3128
ssI719141171847540737
(dp3129
sI2372441490
(dp3130
sI860374943049101313
(dp3131
g1299
(dp3132
ssI17881816
(dp3133
sI892152461082984449
(dp3134
sI862729021557223425
(dp3135
sI828934258769158146
(dp3136
sI809743447246733312
(dp3137
g1872
(dp3138
sg1385
(dp3139
ssI2168866206
(dp3140
sI904929019136704512
(dp3141
sI14366112
(dp3142
g1361
(dp3143
ssI134921444
(dp3144
g1343
(dp3145
ssI860070224820875265
(dp3146
sI90348965
(dp3147
g1364
(dp3148
ssI708217319130943488
(dp3149
sI197567914
(dp3150
sI40815337
(dp3151
sI23158189
(dp3152
g1406
(dp3153
ssI335287726
(dp3154
sI471672239
(dp3155
g1299
(dp3156
sg1309
(dp3157
ssI2881274440
(dp3158
sI292146610
(dp3159
sI885743171845488641
(dp3160
sI1932676536
(dp3161
sI447137209
(dp3162
g1306
(dp3163
ssI75541946
(dp3164
g1309
(dp3165
ssI3150275487
(dp3166
sI79386044
(dp3167
sI1055490565
(dp3168
g1490
(dp3169
ssI3468502462
(dp3170
sI3157312960
(dp3171
sI40814383
(dp3172
g1356
(dp3173
ssI30313925
(dp3174
g1353
(dp3175
ssI1345646022
(dp3176
g1350
(dp3177
ssI215244619
(dp3178
sI93406669
(dp3179
g1332
(dp3180
ssI8771022
(dp3181
g1353
(dp3182
ssI630169165
(dp3183
g1325
(dp3184
ssI1965255073
(dp3185
sI3296742865
(dp3186
sI554468819
(dp3187
g1316
(dp3188
ssI900436451216830465
(dp3189
sI4690290134
(dp3190
g1382
(dp3191
ssI27966935
(dp3192
g1462
(dp3193
sg1398
(dp3194
ssI102401151
(dp3195
g1487
(dp3196
ssI1029295578
(dp3197
g1840
(dp3198
ssI19113435
(dp3199
g1524
(dp3200
ssI805538910394785793
(dp3201
sI828051573725134848
(dp3202
sI505083
(dp3203
g1325
(dp3204
ssI231673318
(dp3205
g1289
(dp3206
ssI18906599
(dp3207
sI759871070136598528
(dp3208
sI4804296170
(dp3209
I3283517792
(dp3210
sI704482666955976704
(dp3211
sI3146359696
(dp3212
sI33667397
(dp3213
sI875313173083164673
(dp3214
sI57335176
(dp3215
sI103622347
(dp3216
sI24594252
(dp3217
sI90727790
(dp3218
sI36387920
(dp3219
sI2403937010
(dp3220
sI81801844
(dp3221
sI3353579894
(dp3222
sI157638614
(dp3223
sI2768703929
(dp3224
sI2331859771
(dp3225
sI2198878544
(dp3226
sI549925200
(dp3227
sI2168866206
(dp3228
sI1522620229
(dp3229
ssI51506610
(dp3230
g1336
(dp3231
ssI223671790
(dp3232
sI15416816
(dp3233
sI5099091
(dp3234
g1606
(dp3235
ssI1339835893
(dp3236
g1313
(dp3237
sg1353
(dp3238
ssI2763795958
(dp3239
I813858525055172608
(dp3240
sI719141171847540737
(dp3241
sI821714293418758144
(dp3242
sI28880869
(dp3243
sI875024040137773056
(dp3244
sI886905865483292673
(dp3245
sI215244619
(dp3246
sI2771848270
(dp3247
sI3294868813
(dp3248
sI860840079195066368
(dp3249
sI843763706676854784
(dp3250
sI16278864
(dp3251
sI1258075795
(dp3252
sI817788623361863680
(dp3253
sI17881816
(dp3254
sI22667872
(dp3255
sI829459635446771712
(dp3256
sI1090378620
(dp3257
sI4002649757
(dp3258
sI859885856752107520
(dp3259
ssI276514295
(dp3260
g1476
(dp3261
ssI615927039
(dp3262
g1430
(dp3263
ssI4022842876
(dp3264
sI2159138301
(dp3265
sI179043039
(dp3266
g1364
(dp3267
ssI16340480
(dp3268
sI770299631909691392
(dp3269
g1299
(dp3270
ssI906289871764963328
(dp3271
sI292083207
(dp3272
g1316
(dp3273
ssI171968009
(dp3274
g1434
(dp3275
ssI14941706
(dp3276
g1840
(dp3277
ssI3063995915
(dp3278
sI3643403789
(dp3279
g1416
(dp3280
ssI197731854
(dp3281
g1364
(dp3282
ssI19373583
(dp3283
g1413
(dp3284
ssI20490840
(dp3285
sI2874539538
(dp3286
sI848390189491802112
(dp3287
sI90727790
(dp3288
sI809920015298424832
(dp3289
sI357606935
(dp3290
I863291154556624896
(dp3291
sI812462389991854080
(dp3292
sI906583132551487490
(dp3293
sI900436451216830465
(dp3294
sI906586306834132993
(dp3295
sI900122114388357126
(dp3296
sI906587112325238784
(dp3297
sI906585765651652609
(dp3298
sI39835363
(dp3299
sI893765510285983744
(dp3300
sI906578165648171008
(dp3301
sI839351135131443200
(dp3302
sI906583761285996544
(dp3303
sI262439605
(dp3304
sI3120443075
(dp3305
sI10142932
(dp3306
sI892152461082984449
(dp3307
sI19319767
(dp3308
sI3267350677
(dp3309
sI906584587815583744
(dp3310
ssI63262233
(dp3311
g1379
(dp3312
ssI9477212
(dp3313
g1419
(dp3314
ssI3129024027
(dp3315
sI22703645
(dp3316
g1309
(dp3317
ssI20545055
(dp3318
g1299
(dp3319
ssI627463714
(dp3320
sI155390555
(dp3321
g1490
(dp3322
ssI724924108400672769
(dp3323
g1385
(dp3324
ssI219582726
(dp3325
g1319
(dp3326
ssI2425410558
(dp3327
g1336
(dp3328
ssI124002304
(dp3329
g1406
(dp3330
ssI3131448873
(dp3331
sI906252573732208640
(dp3332
g1336
(dp3333
ssI86165426
(dp3334
g1343
(dp3335
ssI533202479
(dp3336
g1336
(dp3337
ssI21526685
(dp3338
g1487
(dp3339
ssI501104471
(dp3340
g1306
(dp3341
ssI304966579
(dp3342
g1382
(dp3343
ssI4366246647
(dp3344
sI900073700178919425
(dp3345
sI898760444533288960
(dp3346
g1379
(dp3347
ssI906589963206184961
(dp3348
sI740597986846203904
(dp3349
sI197336641
(dp3350
sI18105922
(dp3351
g1316
(dp3352
ssI18341444
(dp3353
g1332
(dp3354
ssI77686342
(dp3355
g1332
(dp3356
ssI833376066966167552
(dp3357
g1416
(dp3358
ssI780186726228750336
(dp3359
sI493334089
(dp3360
g1306
(dp3361
ssI14067639
(dp3362
sI17006157
(dp3363
g1313
(dp3364
ssI545361165
(dp3365
g1340
(dp3366
ssI231442000
(dp3367
g1476
(dp3368
ssI2325495378
(dp3369
g1309
(dp3370
ssI858940238273683456
(dp3371
sI31448660
(dp3372
g1379
(dp3373
ssI2863488598
(dp3374
g1487
(dp3375
ssI864928799603011591
(dp3376
g1416
(dp3377
ssI362438233
(dp3378
sI712240414166634496
(dp3379
g1840
(dp3380
ssI4171431515
(dp3381
sI807677164023844864
(dp3382
g1490
(dp3383
ssI418991709
(dp3384
sI4003911263
(dp3385
sI702117062437695489
(dp3386
sI942655830
(dp3387
sI20713061
(dp3388
g1299
(dp3389
ssI31080039
(dp3390
g1313
(dp3391
ssI117278313
(dp3392
sI72568426
(dp3393
g1325
(dp3394
ssI416647783
(dp3395
sI18970220
(dp3396
g1306
(dp3397
ssI196032110
(dp3398
g1350
(dp3399
ssI77216701
(dp3400
sI829789919744761856
(dp3401
g1379
(dp3402
ssI705324658
(dp3403
g1462
(dp3404
ssI2153016948
(dp3405
g1840
(dp3406
ssI261371509
(dp3407
g1872
(dp3408
ssI99868278
(dp3409
g1364
(dp3410
ssI2176745083
(dp3411
I883592400752566272
(dp3412
sI901767932304392192
(dp3413
sI2155579778
(dp3414
sI118115748
(dp3415
sI2543408102
(dp3416
sI802392555807735808
(dp3417
sI872075482384224257
(dp3418
sI96071944
(dp3419
sI24329353
(dp3420
sI4804296170
(dp3421
sI299558731
(dp3422
sI2204463980
(dp3423
sI903019254102069250
(dp3424
sI94195631
(dp3425
sI1660862130
(dp3426
sI830813993824636928
(dp3427
sI128724853
(dp3428
sI19685572
(dp3429
sI14306430
(dp3430
sI548625029
(dp3431
ssI1400555132
(dp3432
sI519753341
(dp3433
sI197676671
(dp3434
g1332
(dp3435
ssI3245667971
(dp3436
sI465544836
(dp3437
g1343
(dp3438
ssI906587112325238784
(dp3439
sI906578165648171008
(dp3440
sI446620951
(dp3441
sI249829698
(dp3442
sI256793538
(dp3443
g1416
(dp3444
ssI133430928
(dp3445
g1490
(dp3446
ssI2341332625
(dp3447
sI1955597970
(dp3448
g1416
(dp3449
ssI2884538307
(dp3450
g1524
(dp3451
ssI4824813166
(dp3452
g1840
(dp3453
ssI822844948433301504
(dp3454
sI64003736
(dp3455
g1406
(dp3456
ssI321037252
(dp3457
g1487
(dp3458
ssI69675599
(dp3459
g1840
(dp3460
ssI20659868
(dp3461
g1353
(dp3462
ssI865721143369506816
(dp3463
g1872
(dp3464
ssI83738272
(dp3465
g1371
(dp3466
ssI217732769
(dp3467
g1306
(dp3468
ssI197717666
(dp3469
g1476
(dp3470
ssI3301481896
(dp3471
sI906482187284959233
(dp3472
sI299734693
(dp3473
g1524
(dp3474
ssI843763706676854784
(dp3475
sI1729822376
(dp3476
g1606
(dp3477
ssI633992873
(dp3478
g1462
(dp3479
ssI25959064
(dp3480
sI2399120804
(dp3481
sI14466732
(dp3482
g1419
(dp3483
ssI132489842
(dp3484
sI1660862130
(dp3485
g1289
(dp3486
ssI2208812724
(dp3487
sI3078420766
(dp3488
sI191166134
(dp3489
g1393
(dp3490
ssI257796800
(dp3491
g1364
(dp3492
ssI2383492793
(dp3493
sI801959011247484928
(dp3494
g1413
(dp3495
ssI197752508
(dp3496
sI117269671
(dp3497
g1364
(dp3498
ssI866392710411948032
(dp3499
sI886318841260802049
(dp3500
sI898811912699482112
(dp3501
sI906590945742868482
(dp3502
sI3120443075
(dp3503
sI800085998986149889
(dp3504
sI16378486
(dp3505
g1434
(dp3506
ssI840943865133703168
(dp3507
sI50600062
(dp3508
g1487
(dp3509
ssI24024778
(dp3510
g1379
(dp3511
ssI826217983290769410
(dp3512
I839177690544488449
(dp3513
ssI698153378757660672
(dp3514
g1840
(dp3515
ssI40815457
(dp3516
g1356
(dp3517
ssI894352469744001024
(dp3518
sI1472026321
(dp3519
sI211037906
(dp3520
sI38721239
(dp3521
g1336
(dp3522
ssI34209496
(dp3523
g1375
(dp3524
ssI213698852
(dp3525
g1350
(dp3526
ssI185954863
(dp3527
g1706
(dp3528
ssI46120911
(dp3529
g1343
(dp3530
ssI826312252085112832
(dp3531
sI743071503642566657
(dp3532
sI2388207329
(dp3533
sI39835363
(dp3534
I811480199938396160
(dp3535
sI40962624
(dp3536
sI792868059836878850
(dp3537
sI861102310478548992
(dp3538
sI69421956
(dp3539
sI3183850469
(dp3540
sI816078756360097792
(dp3541
sI827078814555578369
(dp3542
sI16171595
(dp3543
sI32774989
(dp3544
sI379741390
(dp3545
sI785460842955313154
(dp3546
sI1323549008
(dp3547
sI848390189491802112
(dp3548
sI3787536555
(dp3549
sI773522131393077248
(dp3550
sI785044227474485252
(dp3551
sI2980703969
(dp3552
sI826312252085112832
(dp3553
sI2917960765
(dp3554
ssI39710722
(dp3555
g1336
(dp3556
ssI974802661
(dp3557
sI359540454
(dp3558
sI124229352
(dp3559
g1840
(dp3560
ssI872075482384224257
(dp3561
g1289
(dp3562
ssI903475806655045633
(dp3563
sI15935213
(dp3564
g1419
(dp3565
ssI50055701
(dp3566
g1299
(dp3567
ssI330509973
(dp3568
sI161715155
(dp3569
g1524
(dp3570
ssI52009598
(dp3571
g1364
(dp3572
ssI904932281285881856
(dp3573
sI413253370
(dp3574
g1706
(dp3575
ssI246430286
(dp3576
sI40815621
(dp3577
g1356
(dp3578
ssI2305384189
(dp3579
g1434
(dp3580
ssI587165439
(dp3581
g1371
(dp3582
ssI906588826885173248
(dp3583
sI856473488659537920
(dp3584
sI185374468
(dp3585
g1332
(dp3586
ssI40814121
(dp3587
sI906590907608195072
(dp3588
sI882645123196231680
(dp3589
I5815392
(dp3590
sI858513720925978624
(dp3591
sI4833544738
(dp3592
sI3245667971
(dp3593
sI3247776197
(dp3594
sI738894256593502208
(dp3595
sI44998279
(dp3596
sI3131448873
(dp3597
sI249829698
(dp3598
sI787772328398692352
(dp3599
sI1472026321
(dp3600
sI1461170642
(dp3601
sI974802661
(dp3602
sI759871070136598528
(dp3603
sI2763795958
(dp3604
sI1849075543
(dp3605
sI2383492793
(dp3606
sI2388207329
(dp3607
sI479826814
(dp3608
sI812376663560519680
(dp3609
ssI202258185
(dp3610
sI4910329610
(dp3611
g1840
(dp3612
ssI151295755
(dp3613
g1524
(dp3614
ssI835914152027750400
(dp3615
g1393
(dp3616
ssI173699375
(dp3617
g1840
(dp3618
ssI20963090
(dp3619
sI2978414355
(dp3620
g1706
(dp3621
ssI2894114580
(dp3622
g1385
(dp3623
ssI716386643213574144
(dp3624
g1299
(dp3625
ssI813750042
(dp3626
sI93673775
(dp3627
g1353
(dp3628
ssI57779998
(dp3629
g1872
(dp3630
ssI64997151
(dp3631
sI162205472
(dp3632
sI3274699908
(dp3633
sI906588853120720897
(dp3634
sI1932851846
(dp3635
g1462
(dp3636
sg1398
(dp3637
ssI56561449
(dp3638
g1309
(dp3639
ssI197812010
(dp3640
g1332
(dp3641
ssI906588368108224512
(dp3642
sI431413036
(dp3643
sI860137000686338048
(dp3644
sI3734732592
(dp3645
g1350
(dp3646
ssI4905251806
(dp3647
g1416
(dp3648
ssI773397580051017728
(dp3649
sI279827082
(dp3650
g1476
(dp3651
ssI2191169342
(dp3652
sI3082022719
(dp3653
sI3441047360
(dp3654
g1840
(dp3655
ssI190404578
(dp3656
g1413
(dp3657
ssI420396862
(dp3658
sI20479813
(dp3659
g1597
(dp3660
ssI2273656646
(dp3661
g1371
(dp3662
ssI299558731
(dp3663
g1289
(dp3664
ssI24594252
(dp3665
sI1300301
(dp3666
sI419918470
(dp3667
g1325
(dp3668
ssI115414863
(dp3669
sI9207632
(dp3670
g1340
(dp3671
ssI702739245195096065
(dp3672
g1413
(dp3673
ssI3417556319
(dp3674
g1872
(dp3675
ssI2872661847
(dp3676
sI14400484
(dp3677
g1419
(dp3678
ssI2242922330
(dp3679
g1606
(dp3680
ssI191889245
(dp3681
g1406
(dp3682
ssI50476895
(dp3683
g1406
(dp3684
ssI4121225056
(dp3685
g1309
(dp3686
ssI2247018338
(dp3687
g1398
(dp3688
ssI2892875619
(dp3689
sI839177690544488449
(dp3690
sI197680102
(dp3691
sI50329448
(dp3692
g1872
(dp3693
ssI322293052
(dp3694
g1309
(dp3695
ssI2892572588
(dp3696
g1706
(dp3697
ssI14781534
(dp3698
g1419
(dp3699
ssI757667003092140032
(dp3700
g1385
(dp3701
ssI280860526
(dp3702
g1476
(dp3703
ssI122339183
(dp3704
g1332
(dp3705
ssI48927836
(dp3706
sI180733809
(dp3707
g1313
(dp3708
ssI121204594
(dp3709
g1416
(dp3710
ssI33648499
(dp3711
g1316
(dp3712
ssI128724853
(dp3713
sI879005499932278788
(dp3714
g1419
(dp3715
ssI1890938744
(dp3716
g1316
(dp3717
ssI906591142527070208
(dp3718
sI709878752793133056
(dp3719
sI275476458
(dp3720
g1476
(dp3721
ssI906590318207881218
(dp3722
sI858513720925978624
(dp3723
sI19255509
(dp3724
g1306
(dp3725
ssI729676086632656900
(dp3726
g1309
(dp3727
ssI21655428
(dp3728
g1406
(dp3729
ssI118896517
(dp3730
sI906590421572186112
(dp3731
sI58105735
(dp3732
g1416
(dp3733
ssI61636488
(dp3734
g1353
(dp3735
ssI171020169
(dp3736
sI70938507
(dp3737
g1706
(dp3738
ssI21431618
(dp3739
g1316
(dp3740
ssI293167768
(dp3741
g1343
(dp3742
ssI28754963
(dp3743
sI2830667667
(dp3744
sI211269614
(dp3745
g1385
(dp3746
ssI884677621547757568
(dp3747
sI66467735
(dp3748
sI1587890072
(dp3749
sI2567908676
(dp3750
g1413
(dp3751
ssI134891503
(dp3752
sI108247668
(dp3753
g1706
(dp3754
ssI891796727791005697
(dp3755
sI721519833561477120
(dp3756
sI705488139091972096
(dp3757
sI906586306834132993
(dp3758
sI81810611
(dp3759
g1706
(dp3760
ssI47032231
(dp3761
g1350
(dp3762
ssI149891740
(dp3763
sI901767932304392192
(dp3764
sI830813993824636928
(dp3765
g1289
(dp3766
ssI94195631
(dp3767
sI2590257072
(dp3768
sI236631986
(dp3769
sI112621492
(dp3770
sI3091808182
(dp3771
g1490
(dp3772
ssI216776631
(dp3773
g1313
(dp3774
sg1371
(dp3775
sg1382
(dp3776
ssI2174463928
(dp3777
g1413
(dp3778
ssI709774998874013696
(dp3779
sI878604381050032129
(dp3780
sI14084825
(dp3781
g1419
(dp3782
ssI906587359768203266
(dp3783
I906252573732208640
(dp3784
sI767995186605686784
(dp3785
sI118115748
(dp3786
ssI587191730
(dp3787
g1350
(dp3788
ssI18442178
(dp3789
sI735275750505340928
(dp3790
g1524
(dp3791
ssI606211203
(dp3792
g1325
(dp3793
ssI897368871669084160
(dp3794
sI2900662775
(dp3795
g1706
(dp3796
ssI17891273
(dp3797
g1353
(dp3798
ssI2717044682
(dp3799
sI17475575
(dp3800
g1487
(dp3801
ssI613398477
(dp3802
g1350
(dp3803
ssI322953166
(dp3804
g1524
(dp3805
ssI869771321911148544
(dp3806
g1299
(dp3807
ssI21878736
(dp3808
sI157638614
(dp3809
sI40815151
(dp3810
sI813048057973587968
(dp3811
g1382
(dp3812
ssI844629005760385024
(dp3813
g1382
(dp3814
ssI286261212
(dp3815
sI91285471
(dp3816
g1406
(dp3817
ssI55570400
(dp3818
g1340
(dp3819
ssI21954529
(dp3820
g1434
(dp3821
ssI2457429986
(dp3822
sI800707492346925056
(dp3823
g1524
(dp3824
ssI49879012
(dp3825
sI40814565
(dp3826
sI444470743
(dp3827
g1606
(dp3828
ssI16113639
(dp3829
g1353
(dp3830
ssI26322920
(dp3831
g1353
(dp3832
ssI99362794
(dp3833
g1430
(dp3834
ssI17171111
(dp3835
g1353
(dp3836
ssI905742450274082816
(dp3837
sI906124632155181056
(dp3838
sI846137120209190912
(dp3839
g1379
(dp3840
ssI64397992
(dp3841
g1434
(dp3842
ssI302618611
(dp3843
g1343
(dp3844
ssI5402612
(dp3845
g1313
(dp3846
sg1371
(dp3847
ssI791306523062497280
(dp3848
g1413
(dp3849
ssI1087440553
(dp3850
g1872
(dp3851
ssI803449034019110913
(dp3852
g1299
(dp3853
ssI19058681
(dp3854
g1306
(dp3855
ssI40815799
(dp3856
g1356
(dp3857
ssI807095
(dp3858
g1371
(dp3859
ssI40814591
(dp3860
ssS'edge'
p3861
g1260
sS'graph'
p3862
(dp3863
sS'adjlist_dict_factory'
p3864
g1257
sS'adj'
p3865
g1260
sS'pred'
p3866
(dp3867
I885393827103727616
(dp3868
I545561179
g2143
sI429857924
g1411
sI1345646022
g3177
sI38617670
g2102
sI47032231
g3762
sg1406
g2358
sI613398477
g3803
sI196032110
g3399
sI23567501
g2846
sI3734732592
g3646
sI187881969
g1998
sI587191730
g3788
sI468640052
g1723
sI213698852
g3526
sI35430180
g2388
sI214409268
g1351
sI865334042
g2340
sI858794683
g2227
sI3297575484
g2091
sI280896606
g2803
sI855756072
g2996
ssI842714107178450944
(dp3869
g1406
g2359
ssI906590439578460162
(dp3870
g1309
g1574
ssI900031402845978627
(dp3871
sI885697397564866564
(dp3872
g1406
g2361
ssI906587332157026309
(dp3873
I712557069824630784
g2292
sI813048057973587968
g3812
sI794874367587057665
g2175
sI4690290134
g3191
sI8824902
g1383
sI56443153
g2025
sI297996937
g2192
sI242245578
g2883
sI844629005760385024
g3814
sI811229675758505984
g1994
sI155659213
g2616
sg1462
g2544
sI1627820371
g1784
sI214017108
g2006
sI43139414
g1863
sI216776631
g3776
sI78010944
g2097
sI364891289
g2564
sI12044602
g2342
sI304966579
g3343
ssI796902352963764224
(dp3874
g1406
g2362
ssI906586171278585857
(dp3875
I2247018338
g3688
sI1932851846
g3637
sI1371618385
g2787
sI790728
g1548
sg1462
g2551
sI1691574356
g1399
sI27966935
g3194
ssI2675288072
(dp3876
g1840
g2745
ssI890891
(dp3877
sI266420236
(dp3878
g1524
g1797
ssI901941258318479362
(dp3879
g1309
g1565
ssI40814607
(dp3880
g1356
g1765
ssI906589926510260225
(dp3881
g1434
g1634
ssI30838787
(dp3882
sI20733972
(dp3883
sI906590003328937984
(dp3884
g1434
g1649
ssI14075928
(dp3885
sI2990729241
(dp3886
sI106762266
(dp3887
sI898345680623857665
(dp3888
g1419
g2244
ssI191450458
(dp3889
g1364
g1703
ssI817873519954587653
(dp3890
g1416
g1754
ssI976900128
(dp3891
sI3457675883
(dp3892
g1350
g1271
ssI823367015830323201
(dp3893
sI906589922886373382
(dp3894
g1309
g1569
ssI108648487
(dp3895
g1332
g1666
ssI14850088
(dp3896
g1476
g2418
ssI767995186605686784
(dp3897
g1336
g3785
sg1382
g1293
ssI906589970009346055
(dp3898
g1434
g1638
sg1309
g1577
ssI365939318
(dp3899
sI473960496
(dp3900
sI3135860744
(dp3901
g1487
g2129
ssI23186079
(dp3902
sI906583132551487490
(dp3903
g1353
g3293
ssI214409268
(dp3904
sI117743669
(dp3905
sI40814647
(dp3906
sI197545311
(dp3907
sI10729532
(dp3908
sI197810238
(dp3909
sI40814261
(dp3910
g1356
g1770
ssI61440064
(dp3911
sI3283517792
(dp3912
g1606
g3210
ssI970207298
(dp3913
sI384951307
(dp3914
sI2212489284
(dp3915
g1840
g2742
ssI443215941
(dp3916
sI8824902
(dp3917
sI765515105576550400
(dp3918
sI81947660
(dp3919
g1419
g2240
ssI40814667
(dp3920
g1356
g1761
ssI738894256593502208
(dp3921
g1413
g3595
ssI2289143886
(dp3922
g1306
g2520
ssI48304141
(dp3923
g1430
g3117
ssI403720013
(dp3924
sI29995782
(dp3925
sI1691574356
(dp3926
sI4827631701
(dp3927
sI731342744157741056
(dp3928
g1840
g2754
ssI2214869083
(dp3929
sI49049693
(dp3930
sI2461252965
(dp3931
g1487
g2126
ssI433741920
(dp3932
g1416
g1735
ssI429857924
(dp3933
g1350
g1264
ssI1485733987
(dp3934
sI1221025892
(dp3935
sI27058391
(dp3936
sI16498705
(dp3937
sI784401549778911232
(dp3938
g1430
g3115
ssI19837528
(dp3939
sI2772648048
(dp3940
g1379
g3059
ssI98314354
(dp3941
g1476
g2425
ssI575663123
(dp3942
g1356
g1776
ssI5625972
(dp3943
sI4916410486
(dp3944
g1872
g2403
ssI2750877815
(dp3945
sI891384910921048064
(dp3946
sI1243555962
(dp3947
I1007310656
g2768
sI247423201
g1591
sI465544836
g3438
sI134921444
g3145
sI513053500
g2412
sI188882089
g2875
sI158698396
g2571
sI953959148
g2299
sI1250322734
g1717
sI46120911
g3530
sI473960496
g1344
sI293167768
g3742
sI86165426
g3335
sI302618611
g3844
sI97522487
g2151
sI92428568
g1661
sI474293689
g1919
sI22684698
g2712
sg1332
g1678
sI198858461
g1509
sI89506218
g1912
ssI223166587
(dp3948
sI48906364
(dp3949
sI887063489625325572
(dp3950
sI14669951
(dp3951
sI3064789121
(dp3952
sI497250434
(dp3953
g1379
g3049
ssI3486152835
(dp3954
g1416
g1737
ssI2719944836
(dp3955
g1350
g1266
ssI235261974
(dp3956
sI906590151605751808
(dp3957
g1434
g1633
ssI7120992
(dp3958
sI5392522
(dp3959
sI898059854006308864
(dp3960
g1419
g2232
ssI108910732
(dp3961
sI5695632
(dp3962
sI79293791
(dp3963
sI20316308
(dp3964
g1524
g1801
ssI3267350677
(dp3965
g1353
g3309
ssI40815581
(dp3966
g1356
g1777
ssI50294938
(dp3967
sI40814747
(dp3968
sI28113052
(dp3969
sI1532061
(dp3970
sI34507480
(dp3971
sI4615888755
(dp3972
g1419
g2246
ssI198858461
(dp3973
sI342599843
(dp3974
sI816298918468259841
(dp3975
sI4025225381
(dp3976
g1316
g1967
ssI82613214
(dp3977
sI812376663560519680
(dp3978
g1413
g3609
ssI80361644
(dp3979
sI2397625714
(dp3980
sI143024790
(dp3981
g1476
g2427
ssI394465457
(dp3982
sI1915534530
(dp3983
sI16548023
(dp3984
sI813749727170793473
(dp3985
sI1016021178
(dp3986
sI887878687
(dp3987
sI212113098
(dp3988
sI838672863716589568
(dp3989
sI802392555807735808
(dp3990
g1289
g3417
ssI19685572
(dp3991
g1289
g3429
ssI3353579894
(dp3992
g1606
g3222
ssI994511047
(dp3993
sI790728
(dp3994
sI859885856752107520
(dp3995
g1393
g3259
ssI704482666955976704
(dp3996
g1606
g3211
ssI14989516
(dp3997
sI2564370638
(dp3998
sI234904269
(dp3999
sI376967376
(dp4000
g1872
g2398
ssI25073877
(dp4001
I720293443260456960
g1625
sI823367015830323201
g1329
sI245963716
g2609
sI37764422
g3018
sI475802156
g2074
sI822215673812119553
g2578
sI56561449
g3639
sI22203756
g3074
sI4121225056
g3686
sI471672239
g3157
sI2325495378
g3370
sI20733972
g1310
sI50769180
g2984
sI41634520
g2277
sI729676086632656900
g3727
sI75541946
g3165
sI322293052
g3695
sI22703645
g3317
sI196168350
g2212
sI14669951
g1467
ssI906588395492794368
(dp4002
g1462
g2541
ssI245802517
(dp4003
g1343
g1443
ssI3026603044
(dp4004
sI1369596122
(dp4005
g1343
g1453
ssI68522205
(dp4006
sI2441736416
(dp4007
g1706
g1810
ssI247423201
(dp4008
sI723525858
(dp4009
sI240664803
(dp4010
g1524
g1791
sg1340
g2047
ssI4611184641
(dp4011
g1487
g2128
ssI813286
(dp4012
sI896980623809818624
(dp4013
g1462
g2547
ssI21332200
(dp4014
sI139092348
(dp4015
sI120004844
(dp4016
g1306
g2523
ssI1345476306
(dp4017
sI855999418411208704
(dp4018
g1340
g2054
ssI381868271
(dp4019
g1364
g1694
ssI22425840
(dp4020
sI40814683
(dp4021
sI837883810356334593
(dp4022
g1840
g2744
ssI197624060
(dp4023
sI737233125361750016
(dp4024
g1343
g1441
ssI150317310
(dp4025
g1430
g3127
ssI434829567
(dp4026
sI197742170
(dp4027
sI762396950339747840
(dp4028
g1406
g2377
ssI720293443260456960
(dp4029
sI417650980
(dp4030
g1476
g2415
ssI96071944
(dp4031
g1289
g3419
ssI29442313
(dp4032
I713048630173638656
g2945
sI21954529
g3821
sI80366372
g2279
sI16714630
g2993
sI47034524
g2584
sI21332200
g1601
sI171968009
g3275
sI64397992
g3842
sI80361644
g1519
sI15160529
g2919
sI637196658
g1852
sI18691048
g2648
sI16378486
g3506
sI2750877815
g1435
sI816298918468259841
g1513
sI16206682
g2461
sI402957663
g2636
sI28113052
g1502
sI2305384189
g3580
sI15099007
g2835
ssI14206795
(dp4033
g1361
g2692
ssI14362891
(dp4034
sI564173073
(dp4035
sI14749971
(dp4036
sI40814871
(dp4037
g1356
g1771
ssI92428568
(dp4038
sI197574940
(dp4039
I181542016
g2837
sI222726561
g1902
sI185374468
g3586
sI77686342
g3356
sI108648487
g1333
sI197812010
g3641
sI26102066
g1721
sI93406669
g3180
sI122339183
g3705
sI117605296
g2592
sI182837791
g2039
sI197545311
g1359
sI128052116
g2562
sI197634351
g1719
sI197676671
g3435
sI18341444
g3354
sI197589439
g1933
sI197624060
g1616
sI56769022
g2011
sI135439167
g2437
ssI892404605983870977
(dp4040
g1419
g2235
ssI197660958
(dp4041
I257796800
g3492
sI189293091
g2043
sI197731588
g2968
sI90348965
g3148
sI117269671
g3498
sI115364872
g2681
sI210428700
g2220
sI179850444
g2913
sI197731854
g3282
sI185510351
g1945
sI197507697
g2164
sI109998675
g2116
sI52009598
g3572
sI99868278
g3410
sI197570872
g1725
sI197742170
g1622
sI179043039
g3267
sg1332
g1681
sI197498685
g2484
sI197810238
g1365
sI128148127
g1929
ssI191004170
(dp4042
sI814231264765026305
(dp4043
sI972558726
(dp4044
sI9300262
(dp4045
sI906582360405278720
(dp4046
I838672863716589568
g1539
sI813749727170793473
g1531
sI724924108400672769
g3324
sI4704895717
g2289
sI806798260094451712
g2794
sI805433385623568385
g3039
sI3064789121
g1469
sI2269066730
g2498
sI3437747915
g2258
sI757667003092140032
g3701
sI211269614
g3746
sI809743447246733312
g3139
sg1462
g2556
sI2894114580
g3623
sI55835157
g2032
sI2214869083
g1404
sI4830585628
g2345
sI814231264765026305
g1709
sI994511047
g1546
sI765515105576550400
g1386
ssI3398633772
(dp4047
g1416
g1745
ssI1250322734
(dp4048
sI197634351
(dp4049
sI26102066
(dp4050
sI468640052
(dp4051
sI197570872
(dp4052
sI11348282
(dp4053
sI307423967
(dp4054
sI40815039
(dp4055
g1356
g1775
ssI355367229
(dp4056
g1872
g2407
ssI741293278658592768
(dp4057
g1487
g2122
ssI388677953
(dp4058
g1840
g2749
ssI46541122
(dp4059
I833376066966167552
g3358
sI779613876228730881
g1908
sI256793538
g3444
sI3486152835
g1473
sI799714384096280580
g2182
sI864928799603011591
g3377
sI755733097
g2160
sg1597
g2899
sI58105735
g3733
sI396645388
g2685
sI900119151372492801
g2976
sI3643403789
g3280
sI352672945
g2885
sI1955597970
g3449
sI410282644
g2200
sI736763562530471937
g1952
sI1969984345
g2459
sI121204594
g3710
sI1221025892
g1417
sI30684018
g2488
sI4905251806
g3648
ssI827078814555578369
(dp4060
g1371
g3542
ssI33667397
(dp4061
g1606
g3213
ssI594874694
(dp4062
g1416
g1738
ssI48996679
(dp4063
I40815777
g2611
sI40814683
g1613
sI40814117
g2934
sI40815457
g3517
sI40815991
g3091
sI40815593
g2650
sI40814647
g1357
sg1361
g2691
sI40814383
g3173
sI40816001
g3097
sI40814033
g2887
sI40815987
g3084
sI40815999
g3095
sI40814453
g1868
sI40815799
g3857
sI40814989
g1883
sI40815985
g3080
sI40814747
g1500
sI40815989
g3088
sI40815441
g2452
sI40815621
g3578
ssI2257558088
(dp4064
g1416
g1749
ssI4448844105
(dp4065
g1419
g2238
ssI906133598553681920
(dp4066
g1462
g2558
ssI2198878544
(dp4067
g1606
g3226
ssI1627820371
(dp4068
sI57334102
(dp4069
sI55064920
(dp4070
I735275750505340928
g3791
sI800707492346925056
g3824
sI2884538307
g3451
sI48071844
g2627
sI299734693
g3474
sI161715155
g3570
sI2511471793
g2721
sI19113435
g3200
sI37610602
g2818
sI151295755
g3614
sI322953166
g3805
sI49535791
g2383
sI394465457
g1525
sI113130259
g2334
sI93293716
g2856
sI254337496
g1958
sI53338746
g2177
sI35001979
g2353
sg1316
g1979
sI68522205
g1588
sI147409758
g2466
ssI82071897
(dp4071
I246248801
g3045
sI84289378
g2082
sI182755747
g1906
sI81810611
g3760
sI95371788
g2779
sI114644300
g1895
sI3755478314
g2385
sI2900662775
g3796
sI2892572588
g3697
sI185954863
g3528
sI150887728
g3001
sI2978414355
g3621
sI108247668
g3754
sI87401598
g2656
sI191004170
g1707
sI70938507
g3738
sI413253370
g3575
sI80417598
g1987
sI1667921821
g2472
sg1364
g1701
sI92695098
g3041
ssI2508941658
(dp4072
sI4871584091
(dp4073
g1316
g1980
ssI30358586
(dp4074
g1430
g3123
ssI533029214
(dp4075
g1306
g2534
ssI501270879
(dp4076
sI65069408
(dp4077
sI906583761285996544
(dp4078
g1353
g3303
ssI3146115426
(dp4079
sI1020058453
(dp4080
sI95674729
(dp4081
sI104063340
(dp4082
sI905180324937785345
(dp4083
g1350
g1272
ssI906588868471902208
(dp4084
g1462
g2553
ssI787772328398692352
(dp4085
g1413
g3599
ssI637196658
(dp4086
sI751110996559814657
(dp4087
sI211648886
(dp4088
g1524
g1792
ssI107037417
(dp4089
g1316
g1970
ssI267338104
(dp4090
sI30663036
(dp4091
g1462
g2557
ssI16249213
(dp4092
sI43139414
(dp4093
sI2155579778
(dp4094
g1289
g3414
ssI804942511718461440
(dp4095
sI40814453
(dp4096
sI828347623098560512
(dp4097
g1430
g3113
ssI101132353
(dp4098
g1306
g2517
ssI217749896
(dp4099
sI3213163534
(dp4100
g1306
g2524
ssI864470444245757952
(dp4101
I801897909725917184
g2641
sI854552997707337729
g2324
sI824640611441606658
g2297
sI206570659
g2868
sI98294468
g2255
sI1055490565
g3169
sI807677164023844864
g3383
sI751110996559814657
g1854
sg1406
g2363
sI75744139
g2511
sI973996236
g2908
sI234904269
g1557
sI256073230
g2796
sI133430928
g3446
sI1628404363
g2196
sI30944245
g2664
sI3091808182
g3772
sI1267375032
g2598
sI155390555
g3322
sI79293791
g1491
ssI40814989
(dp4102
sI208232847
(dp4103
sI110365072
(dp4104
sI92449170
(dp4105
g1361
g2693
ssI785044227474485252
(dp4106
g1371
g3551
ssI479863188
(dp4107
sI30364057
(dp4108
sI114644300
(dp4109
g1706
g1817
ssI846380717349240833
(dp4110
g1430
g3114
ssI40814319
(dp4111
g1356
g1769
ssI477667743
(dp4112
sI1001048480
(dp4113
g1840
g2752
ssI222726561
(dp4114
sI387996066
(dp4115
sI182755747
(dp4116
sI779613876228730881
(dp4117
sI890502325474865152
(dp4118
g1340
g2053
ssI808025618239475712
(dp4119
g1356
g1759
ssI89506218
(dp4120
sI124963911
(dp4121
g1434
g1641
ssI1169637804
(dp4122
sI365763314
(dp4123
sI474293689
(dp4124
sI812462389991854080
(dp4125
g1353
g3292
ssI471287735
(dp4126
sI2843515318
(dp4127
g1434
g1639
ssI3882117561
(dp4128
g1872
g2405
ssI570522042
(dp4129
sI3236360620
(dp4130
g1490
g1880
ssI128148127
(dp4131
sI15950269
(dp4132
sI197589439
(dp4133
sI37999041
(dp4134
sI1306925508
(dp4135
sI3247776197
(dp4136
g1413
g3594
ssI2250760609
(dp4137
I106762266
g1320
sg1361
g2688
sI219582726
g3326
ssI716510667243651072
(dp4138
g1872
g2409
ssI416676471
(dp4139
g1476
g2428
ssI85772748
(dp4140
sI185510351
(dp4141
sI192862672
(dp4142
sI1461170642
(dp4143
g1413
g3601
ssI873261523
(dp4144
sI736763562530471937
(dp4145
g1416
g1740
ssI15933910
(dp4146
sI4782551
(dp4147
sI254337496
(dp4148
sI118115748
(dp4149
g1336
g3786
sg1289
g3415
ssI963637723
(dp4150
g1476
g2431
ssI104673756
(dp4151
I890281627540213760
g2482
sI22425840
g1611
sI78525538
g2807
sI33989747
g2824
sI1306925508
g1937
sI292083207
g3273
sI554468819
g3188
sI19227177
g2956
sI42738666
g2652
sI14873767
g2872
sI14989516
g1553
sI21431618
g3740
sI16020654
g2879
sI147961168
g3031
sI33648499
g3712
sI18105922
g3352
sI1890938744
g3717
sI2990729241
g1317
sI18378044
g3007
sI57396255
g2716
ssI588200416
(dp4152
sI906590655278919681
(dp4153
g1309
g1564
ssI80417598
(dp4154
sI55181796
(dp4155
sI165549137
(dp4156
g1476
g2424
ssI147335250
(dp4157
sI811229675758505984
(dp4158
sI755821622641254401
(dp4159
sI187881969
(dp4160
sI285846002
(dp4161
g1343
g1444
ssI1261451576
(dp4162
g1306
g2531
ssI202287605
(dp4163
g1706
g1822
ssI622097143
(dp4164
sI750317076112375808
(dp4165
g1343
g1442
ssI214017108
(dp4166
sI13134332
(dp4167
sI325890557
(dp4168
g1379
g3065
ssI56769022
(dp4169
sI893765510285983744
(dp4170
g1353
g3300
ssI549925200
(dp4171
g1606
g3227
ssI359340545
(dp4172
sI518439339
(dp4173
g1706
g1816
ssI8442372
(dp4174
sI44998279
(dp4175
g1413
g3596
ssI906588016004579328
(dp4176
g1309
g1572
ssI197726728
(dp4177
g1332
g1673
ssI9376172
(dp4178
sI56443153
(dp4179
sI901821863411810304
(dp4180
g1419
g2251
ssI2284427792
(dp4181
sI563946002
(dp4182
g1382
g1294
ssI197553874
(dp4183
g1364
g1696
ssI55835157
(dp4184
sI277948950
(dp4185
g1364
g1699
ssI2181560068
(dp4186
g1350
g1276
ssI1404590618
(dp4187
sI182837791
(dp4188
sI857543865724809217
(dp4189
g1430
g3120
ssI4833544738
(dp4190
g1413
g3592
ssI189293091
(dp4191
g1364
g1695
ssI838142099035996161
(dp4192
I55570400
g3819
sI842423007834443777
g2927
sI2903979971
g2287
sI48071844
g2628
sI29995782
g1396
sI243563201
g2230
sI61440064
g1368
sI267512876
g2729
sI701725963
g2974
sI9376172
g2023
sI545361165
g3366
sI252104045
g3076
sI9207632
g3671
sI411405379
g2773
sI93293716
g2857
sI4827631701
g1401
sI365939318
g1341
sI80077721
g2566
sI380814299
g2631
sg1316
g1966
ssI1689702150
(dp4193
sI2840744001
(dp4194
sI906590687491006464
(dp4195
g1434
g1637
sg1309
g1570
ssI1322416681
(dp4196
g1316
g1971
ssI19697415
(dp4197
sI475802156
(dp4198
sI44196397
(dp4199
sI16399908
(dp4200
sI374481331
(dp4201
g1364
g1697
ssI84289378
(dp4202
g1706
g1811
ssI15350325
(dp4203
sI15143478
(dp4204
sI1924071992
(dp4205
g1340
g2062
ssI554666554
(dp4206
sI3297575484
(dp4207
sI77316669
(dp4208
sI2191403582
(dp4209
sI78010944
(dp4210
sI5815392
(dp4211
g1413
g3590
ssI791408342732189696
(dp4212
g1419
g2239
ssI3340073541
(dp4213
g1340
g2056
ssI38617670
(dp4214
sI2697757255
(dp4215
g1524
g1794
ssI1646934600
(dp4216
g1416
g1744
ssI3345533513
(dp4217
g1306
g2522
ssI4643811147
(dp4218
sI16171595
(dp4219
g1371
g3543
ssI255388236
(dp4220
sI386263630
(dp4221
sI98554447
(dp4222
sI109998675
(dp4223
sI52120149
(dp4224
g1597
g2900
sg1332
g1675
sg1361
g2696
ssI2768703929
(dp4225
g1606
g3224
ssI1521687128
(dp4226
g1462
g2555
ssI143303257
(dp4227
I743211192823517184
g3029
sI5695632
g1488
sI321037252
g3458
sI90098789
g2146
sI18254911
g2766
sI18253611
g2319
sI255388236
g2110
sI50600062
g3509
sI21526685
g3339
sI110365072
g1887
sI365763314
g1917
sI2284427792
g2028
sI1020058453
g1843
sI2863488598
g3375
sI17475575
g3801
sI3026603044
g1585
sI1016021178
g1533
sI102401151
g3196
sI76038813
g2210
sg1364
g1700
sI79923701
g2990
ssI545561179
(dp4228
sI1513638493
(dp4229
g1706
g1828
ssI90098789
(dp4230
sI22667872
(dp4231
g1393
g3255
ssI197517921
(dp4232
g1332
g1663
ssI822376728723070976
(dp4233
g1872
g2394
ssI97522487
(dp4234
sI1908105828
(dp4235
sI21918310
(dp4236
sI891081498790703104
(dp4237
g1350
g1270
ssI19397785
(dp4238
sI755733097
(dp4239
sI40962624
(dp4240
g1371
g3536
ssI376077163
(dp4241
g1524
g1796
ssI197507697
(dp4242
sI61352185
(dp4243
sI906585619983454208
(dp4244
g1462
g2549
ssI81801844
(dp4245
g1606
g3221
ssI817788623361863680
(dp4246
g1393
g3253
ssI1228243574
(dp4247
sI108628599
(dp4248
sI794874367587057665
(dp4249
sI53338746
(dp4250
sI255982015
(dp4251
g1840
g2759
ssI302473852
(dp4252
g1487
g2140
ssI51879018
(dp4253
g1340
g2052
ssI799714384096280580
(dp4254
sI779956501754605568
(dp4255
g1379
g3052
ssI793738137138847744
(dp4256
g1343
g1439
ssI191656579
(dp4257
g1340
g2058
ssI130957956
(dp4258
sI548625029
(dp4259
g1289
g3431
ssI899192137845264384
(dp4260
g1316
g1976
ssI297996937
(dp4261
sI2908510858
(dp4262
sI1628404363
(dp4263
sI2806112911
(dp4264
g1350
g1273
ssI16278864
(dp4265
g1393
g3251
ssI410282644
(dp4266
sI20109973
(dp4267
sI58503830
(dp4268
g1309
g1566
ssI37413528
(dp4269
sI904066506346123264
(dp4270
g1286
(g1288
S'\x02\xe0\xd6\x933\xdb\x94\x0c'
tRp4271
g1284
ssI1962661579
(dp4272
sI76038813
(dp4273
sI196168350
(dp4274
sI712602271
(dp4275
g1340
g2064
ssI1453960987
(dp4276
g1340
g2063
ssI808694770835083265
(dp4277
g1340
g2046
ssI906589376746008576
(dp4278
g1434
g1642
ssI753136193190109184
(dp4279
g1430
g3118
ssI2888956584
(dp4280
g1406
g2364
ssI210428700
(dp4281
sI866340866738323456
(dp4282
g1872
g2390
ssI1636590253
(dp4283
sI873917041048256512
(dp4284
g1840
g2740
ssI262439605
(dp4285
g1353
g3304
ssI858794683
(dp4286
sI1694939840
(dp4287
g1340
g2045
ssI243563201
(dp4288
sI828028274047668226
(dp4289
I7120992
g1480
sI11799232
g2449
sg1379
g3056
sI15334083
g2253
sI879005499932278788
g3715
sI16896157
g2590
sI13134332
g2008
sI14362891
g1654
sI14466732
g3483
sI15935213
g3565
sI15950269
g1931
sI10263312
g2331
sI16498705
g1422
sI14781534
g3699
sI27058391
g1420
sI14084825
g3782
sI16578138
g2272
sI9477212
g3314
sI14400484
g3678
sI14758654
g2315
sI15350325
g2084
ssI15334083
(dp4290
sI98294468
(dp4291
sI3150179013
(dp4292
g1872
g2400
ssI3437747915
(dp4293
sI18879176
(dp4294
g1306
g2529
ssI248699593
(dp4295
g1332
g1677
ssI747807250819981312
(dp4296
sI7008972
(dp4297
sI101331661
(dp4298
sI863291154556624896
(dp4299
g1434
g1630
sg1353
g3291
ssI317164240
(dp4300
g1706
g1820
ssI45363552
(dp4301
sI16578138
(dp4302
sI88621782
(dp4303
sI2794535639
(dp4304
g1340
g2061
ssI41634520
(dp4305
sI80366372
(dp4306
sI906590875853058048
(dp4307
g1434
g1646
ssI718519004
(dp4308
sI52264741
(dp4309
sI126595195
(dp4310
g1706
g1827
ssI2903979971
(dp4311
sI4704895717
(dp4312
sI740825976213491712
(dp4313
g1343
g1449
ssI712557069824630784
(dp4314
sI349022952
(dp4315
sI17226473
(dp4316
g1406
g2365
ssI824640611441606658
(dp4317
g1490
g1878
ssI953959148
(dp4318
sI2403937010
(dp4319
g1606
g3220
ssI759251
(dp4320
sI1258075795
(dp4321
g1393
g3252
ssI2917670014
(dp4322
sI374258422
(dp4323
g1361
g2690
ssI43680503
(dp4324
sI1330457336
(dp4325
sI517675769
(dp4326
g1706
g1826
ssI260842234
(dp4327
g1332
g1668
ssI197638271
(dp4328
g1332
g1682
ssI14758654
(dp4329
sI859659008
(dp4330
g1430
g3125
ssI883592400752566272
(dp4331
g1289
g3412
ssI18253611
(dp4332
sI906590850985058304
(dp4333
g1309
g1580
ssI233149192
(dp4334
sI854552997707337729
(dp4335
sI271475466
(dp4336
g1476
g2426
ssI106837463
(dp4337
sI1436549250
(dp4338
sI10263312
(dp4339
sI146522898
(dp4340
g1361
g2695
ssI113130259
(dp4341
sI868637460
(dp4342
sI1878473497
(dp4343
sI865334042
(dp4344
sI12044602
(dp4345
sI4830585628
(dp4346
sI705780698788073472
(dp4347
g1350
g1265
ssI4002649757
(dp4348
g1393
g3258
ssI100827937
(dp4349
sI994338883
(dp4350
g1487
g2124
ssI35001979
(dp4351
sI859543363606896641
(dp4352
sI607651974
(dp4353
g1364
g1688
ssI87823144
(dp4354
I261090400
g2805
sI359340545
g2015
sI77316669
g2093
sI21655428
g3729
sI124002304
g3330
sI3562471
g2646
sI349022952
g2294
sI104063340
g1847
sI23158189
g3153
sI65069408
g1837
sI191889245
g3682
sI64003736
g3456
sI208232847
g1885
sI383031509
g2960
sI15933910
g1954
sI106837463
g2327
sI91285471
g3817
sI18220175
g2850
sI49049693
g1407
sI50476895
g3684
ssI861745475908775936
(dp4355
g1350
g1269
ssI359572266
(dp4356
sI863044429615169536
(dp4357
g1379
g3055
ssI49535791
(dp4358
sI3755478314
(dp4359
sI2382904118
(dp4360
g1430
g3112
ssI35430180
(dp4361
sI1926683448
(dp4362
I800494468310761472
g2988
sI890526296794685441
g3107
sI29471554
g2440
sI799294889540354048
g2816
sI855488685931999232
g2812
sI865721143369506816
g3464
sI50329448
g3693
sI1087440553
g3851
sI3380173685
g2492
sI4708866923
g2668
sI217749896
g1873
sI751721055031586816
g2463
sI261371509
g3408
sI43680503
g2308
sI37413528
g2205
sI3417556319
g3675
sI4830585628
g2344
sI4782551
g1956
sI57779998
g3630
sI809743447246733312
g3138
ssI2331859771
(dp4363
g1606
g3225
ssI513053500
(dp4364
sI118663997
(dp4365
I231442000
g3368
sI273269602
g2469
sI16399908
g2079
sI287482885
g2676
sI279827082
g3651
sI127512071
g2727
sI230691836
g2666
sI275476458
g3721
sI187119787
g2674
sI119016332
g2513
sI277383725
g2978
sI280860526
g3703
sI197717666
g3470
sI192862672
g1947
sI247459133
g3009
sI235261974
g1477
sI276514295
g3261
sI267338104
g1858
sI69681697
g2905
sg1332
g1680
sI259904541
g2714
ssI2542375742
(dp4366
sI135439167
(dp4367
sI165204800
(dp4368
g1316
g1977
ssI29471554
(dp4369
sI16264003
(dp4370
sI3013145413
(dp4371
g1340
g2060
ssI4005088055
(dp4372
g1343
g1452
ssI32774989
(dp4373
g1371
g3544
ssI20880206
(dp4374
sI11799232
(dp4375
sI228621136
(dp4376
g1406
g2375
ssI40815441
(dp4377
sI785460842955313154
(dp4378
g1371
g3546
ssI13212502
(dp4379
sI784786703923970049
(dp4380
sI1969984345
(dp4381
sI16206682
(dp4382
sI751721055031586816
(dp4383
sI4881298269
(dp4384
g1419
g2250
ssI147409758
(dp4385
sI906588962977931264
(dp4386
g1309
g1576
ssI273269602
(dp4387
g1476
g2414
ssI435757008
(dp4388
g1343
g1447
ssI1667921821
(dp4389
sI50393960
(dp4390
sI244376426
(dp4391
g1316
g1972
ssI49740651
(dp4392
g1430
g3116
ssI2204463980
(dp4393
g1289
g3423
ssI197687975
(dp4394
g1364
g1689
ssI890281627540213760
(dp4395
sI197498685
(dp4396
sI3312810864
(dp4397
sI30684018
(dp4398
sI2277106547
(dp4399
g1524
g1800
ssI831210356
(dp4400
g1872
g2401
ssI3380173685
(dp4401
sI852772124
(dp4402
sI708556257041354752
(dp4403
g1306
g2516
ssI1090378620
(dp4404
g1393
g3257
ssI2269066730
(dp4405
sI479826814
(dp4406
g1413
g3608
ssI2452872000
(dp4407
g1306
g2530
ssI889211931202117632
(dp4408
g1350
g1267
ssI69421956
(dp4409
g1371
g3539
ssI906590224695914496
(dp4410
g1309
g1581
ssI18944903
(dp4411
sI47455112
(dp4412
sI1092006794
(dp4413
sI75744139
(dp4414
sI119016332
(dp4415
sI81730445
(dp4416
g1487
g2131
ssI628237198
(dp4417
I217732769
g3468
sI723525858
g1593
sI30838787
g1307
sI493334089
g3361
sI18970220
g3397
sI622097143
g2003
sI108910732
g1485
sI406868514
g2915
sI45794805
g2603
sI387996066
g1904
sI205019081
g2790
sI19058681
g3855
sI53480473
g2710
sg1364
g1693
sI501104471
g3341
sI95674729
g1845
sI447137209
g3163
sI570522042
g1926
sI744621247
g2897
sI82613214
g1516
sI19255509
g3725
ssI906590617119080448
(dp4418
g1434
g1648
ssI3146359696
(dp4419
g1606
g3212
ssI47813521
(dp4420
I1908105828
g2153
sI1932851846
g3636
sI48878503
g2582
sI47455112
g2507
sI633992873
g3479
sI1092006794
g2509
sI1962661579
g2208
sI18549724
g2633
sI705324658
g3404
sI119360445
g2601
sI17001490
g2701
sI14749971
g1658
sI20109973
g2202
sI27966935
g3193
sI1404590618
g2036
sI48906364
g1463
sI2164583325
g2573
sI434829567
g1620
ssI2293549970
(dp4421
g1379
g3061
ssI128052116
(dp4422
sI364891289
(dp4423
sI80077721
(dp4424
sI60865434
(dp4425
sI40815515
(dp4426
g1356
g1768
ssI158698396
(dp4427
sI2164583325
(dp4428
sI1522620229
(dp4429
g1606
g3229
ssI748856604045389824
(dp4430
g1706
g1809
ssI3087727522
(dp4431
g1316
g1965
ssI822215673812119553
(dp4432
sI329519267
(dp4433
g1364
g1686
ssI48878503
(dp4434
sI47034524
(dp4435
sI1548475308
(dp4436
sI1626421878
(dp4437
g1379
g3063
ssI1333509038
(dp4438
g1416
g1747
ssI16896157
(dp4439
sI117605296
(dp4440
sI57582514
(dp4441
g1361
g2694
ssI4447527859
(dp4442
sI2580110263
(dp4443
g1406
g2372
ssI1267375032
(dp4444
g1490
g1881
ssI29731772
(dp4445
g1306
g2533
ssI119360445
(dp4446
sI45794805
(dp4447
sI149726145
(dp4448
sI906587332031246338
(dp4449
g1462
g2552
ssI788983419199852544
(dp4450
g1406
g2360
ssI245963716
(dp4451
sI40815777
(dp4452
g1356
g1764
ssI35171273
(dp4453
sI40815563
(dp4454
g1356
g1767
ssI155659213
(dp4455
sI606667727
(dp4456
sI40815253
(dp4457
g1356
g1772
ssI34743251
(dp4458
sI398660294
(dp4459
g1356
g1763
ssI3270699990
(dp4460
g1872
g2393
ssI19319767
(dp4461
g1353
g3308
ssI46123992
(dp4462
g1406
g2370
ssI48071844
(dp4463
sI380814299
(dp4464
sI18549724
(dp4465
sI567989213
(dp4466
g1872
g2397
ssI402957663
(dp4467
sI1873312735
(dp4468
g1406
g2376
ssI33502178
(dp4469
sI801897909725917184
(dp4470
g1490
g1876
ssI3183850469
(dp4471
g1371
g3540
ssI2543408102
(dp4472
g1289
g3416
ssI3562471
(dp4473
sI18691048
(dp4474
sI40815593
(dp4475
sI42738666
(dp4476
sI399358955
(dp4477
sI87401598
(dp4478
sI812420862272032768
(dp4479
sI149180925
(dp4480
sI840449932108558336
(dp4481
sI30944245
(dp4482
sI230691836
(dp4483
sI4708866923
(dp4484
sI23346175
(dp4485
g1379
g3066
ssI40815617
(dp4486
g1356
g1760
ssI16303106
(dp4487
sI187119787
(dp4488
sI287482885
(dp4489
sI906584587815583744
(dp4490
g1353
g3310
ssI595473415
(dp4491
sI115364872
(dp4492
sI16442379
(dp4493
sI396645388
(dp4494
sI40815629
(dp4495
I14366112
g3143
sI10729532
g1362
sI34184372
g2891
sI8453452
g3026
sI1532061
g1504
ssI803685165851615232
(dp4496
g1840
g2750
ssI17001490
(dp4497
sI149099539
(dp4498
sI43874512
(dp4499
g1419
g2243
ssI906587274858692608
(dp4500
g1462
g2559
ssI879451342372302848
(dp4501
g1340
g2050
ssI2880685079
(dp4502
g1430
g3122
ssI31040536
(dp4503
g1476
g2429
ssI53480473
(dp4504
sI22684698
(dp4505
sI259904541
(dp4506
sI57396255
(dp4507
sI1323549008
(dp4508
g1371
g3547
ssI149367842
(dp4509
g1419
g2234
ssI906587334501695489
(dp4510
g1462
g2554
ssI2511471793
(dp4511
sI21601320
(dp4512
sI52544275
(dp4513
sI127512071
(dp4514
sI267512876
(dp4515
sI886905865483292673
(dp4516
g1393
g3245
ssI742042196803739649
(dp4517
sI755436549416902656
(dp4518
g1840
g2743
ssI1022382600
(dp4519
g1416
g1750
ssI3308659762
(dp4520
g1309
g1573
ssI2151498931
(dp4521
sI266734646
(dp4522
g1361
g2697
ssI705466812717096960
(dp4523
I712240414166634496
g3380
sI3441047360
g3655
sI701069613627535362
g2843
sI548687171
g3015
sI706643098864988160
g2962
sI33041569
g2866
sI124229352
g3560
sI4910329610
g3612
sI3146115426
g1841
sI4824813166
g3453
sI69675599
g3460
sI233149192
g2322
sI147335250
g1992
sI698153378757660672
g3515
sI2153016948
g3406
sg1872
g2404
sI4707812505
g2862
sI1029295578
g3198
sI173699375
g3618
sI4447527859
g2595
sI14941706
g3277
ssI904261825864269825
(dp4524
g1840
g2741
ssI900122114388357126
(dp4525
g1353
g3296
ssI302593083
(dp4526
sI2917960765
(dp4527
g1371
g3554
ssI18254911
(dp4528
sI1007310656
(dp4529
sI3408938848
(dp4530
sI906590897546166274
(dp4531
g1434
g1632
ssI411405379
(dp4532
sI2387824872
(dp4533
g1487
g2133
ssI1832479814
(dp4534
sI197592135
(dp4535
g1332
g1670
ssI95371788
(dp4536
sI14857290
(dp4537
sI91942071
(dp4538
g1524
g1807
ssI875024040137773056
(dp4539
g1393
g3244
ssI2771848270
(dp4540
g1393
g3247
ssI36387920
(dp4541
g1606
g3219
ssI1371618385
(dp4542
sI205019081
(dp4543
sI63692643
(dp4544
sI806798260094451712
(dp4545
sI256073230
(dp4546
sI792783670033743876
(dp4547
g1840
g2755
ssI28405767
(dp4548
g1419
g2249
ssI50712079
(dp4549
sI104016988
(dp4550
g1524
g1806
ssI280896606
(dp4551
sI261090400
(dp4552
sI78525538
(dp4553
sI2186755171
(dp4554
g1313
g2828
sg1299
g2854
ssI704505328956784641
(dp4555
sI855488685931999232
(dp4556
sI103622347
(dp4557
g1606
g3216
ssI799294889540354048
(dp4558
sI37610602
(dp4559
sI859871632222937088
(dp4560
g1419
g2248
ssI2945101330
(dp4561
sI234941142
(dp4562
g1476
g2416
ssI33989747
(dp4563
sI2169945965
(dp4564
g1487
g2132
ssI829459635446771712
(dp4565
g1393
g3256
ssI906590770685108224
(dp4566
I1636590253
g2223
sI31080039
g3391
sI21601320
g2723
sg1434
g1650
sI14857290
g2781
sI16548023
g1529
sI17006157
g3364
sI44196397
g2076
sI180733809
g3708
sI228535666
g3082
sI34743251
g2621
sI5402612
g3846
sI1339835893
g3237
sI15143478
g2086
sI216776631
g3774
sI14075928
g1314
sI30364057
g1893
sI11348282
g1727
sI50393960
g2474
sI2542375742
g2435
ssI482429356
(dp4567
g1306
g2532
ssI593810556
(dp4568
sI14306430
(dp4569
g1289
g3430
ssI15099007
(dp4570
sI181542016
(dp4571
sI849039681996165120
(dp4572
sI906590820656173056
(dp4573
g1434
g1647
ssI906590566762385408
(dp4574
I588200416
g1984
sI270839361
g3102
sI33502178
g2639
sI342599843
g1511
sI19586276
g3037
sI419918470
g3668
sI976900128
g1326
sI593810556
g2831
sI72568426
g3394
sI48360631
g2932
sI85772748
g1943
sI630169165
g3184
sI45363552
g2270
sI606211203
g3793
sI479863188
g1891
sg1309
g1563
sI471287735
g1922
sI60865434
g2568
sI505083
g3204
sI139092348
g1603
sI307423967
g1729
ssI701069613627535362
(dp4575
sI24329353
(dp4576
g1289
g3420
ssI23567501
(dp4577
sI136729742
(dp4578
sI18220175
(dp4579
sI18912401
(dp4580
g1316
g1975
ssI906590929724825600
(dp4581
I804942511718461440
g1866
sI770299631909691392
g3270
sI149726145
g2605
sI803449034019110913
g3853
sI20713061
g3389
sI4865836294
g2939
sI860374943049101313
g3132
sg1434
g1643
sI18222378
g2998
sI890891
g1300
sI471672239
g3156
sI34507480
g1506
sI52544275
g2725
sI25073877
g1579
sI50055701
g3567
sI702235953470038016
g2860
sI20545055
g3319
sI61352185
g2166
sI79293791
g1492
sI716386643213574144
g3625
sI869771321911148544
g3807
ssI93293716
(dp4582
sI3448888469
(dp4583
g1343
g1451
ssI702235953470038016
(dp4584
sI4707812505
(dp4585
sI752622469144510464
(dp4586
sI33041569
(dp4587
sI206570659
(dp4588
sI906586621042200577
(dp4589
g1462
g2543
ssI880580574569570304
(dp4590
g1340
g2051
ssI14873767
(dp4591
sI197600424
(dp4592
g1332
g1667
ssI188882089
(dp4593
sI1164547650
(dp4594
g1706
g1818
ssI906590755371626496
(dp4595
g1309
g1571
ssI16020654
(dp4596
sI2247355933
(dp4597
sI242245578
(dp4598
sI352672945
(dp4599
sI40814033
(dp4600
sI2292315569
(dp4601
sI34184372
(dp4602
sI3294868813
(dp4603
g1393
g3248
ssI777341781360926720
(dp4604
g1406
g2371
ssI24716475
(dp4605
sI744621247
(dp4606
sI1916120257
(dp4607
I52120149
g2118
sI16303106
g2672
sI20479813
g3660
sI813286
g1598
sI19697415
g2072
ssI903019254102069250
(dp4608
g1289
g3424
ssI815271130386743297
(dp4609
g1487
g2123
ssI2880324494
(dp4610
g1706
g1819
ssI69681697
(dp4611
sI902869357298057216
(dp4612
g1350
g1262
ssI973996236
(dp4613
sI2252422987
(dp4614
sI48041163
(dp4615
g1406
g2366
ssI179850444
(dp4616
sI406868514
(dp4617
sI108698830
(dp4618
g1379
g3057
ssI15160529
(dp4619
sI280130770
(dp4620
sI10142932
(dp4621
g1353
g3306
ssI379741390
(dp4622
g1371
g3545
ssI7587032
(dp4623
sI842423007834443777
(dp4624
sI409486555
(dp4625
sI821714293418758144
(dp4626
g1393
g3242
ssI48360631
(dp4627
sI40814117
(dp4628
sI791810860431781888
(dp4629
sI860840079195066368
(dp4630
g1393
g3249
ssI4865836294
(dp4631
sI1849075543
(dp4632
g1413
g3605
ssI203980008
(dp4633
g1306
g2526
ssI3409521898
(dp4634
g1840
g2746
ssI863439402357411840
(dp4635
g1490
g1877
ssI713048630173638656
(dp4636
sI3001271422
(dp4637
g1306
g2528
ssI46476526
(dp4638
sI792868059836878850
(dp4639
g1371
g3537
ssI813853845562466304
(dp4640
sI481461757
(dp4641
sI2927031541
(dp4642
g1416
g1751
ssI19227177
(dp4643
sI136499071
(dp4644
g1430
g3128
ssI197586172
(dp4645
g1332
g1679
ssI383031509
(dp4646
sI706643098864988160
(dp4647
sI134194433
(dp4648
sI425819395
(dp4649
sI197731588
(dp4650
sI16631045
(dp4651
g1340
g2049
ssI839351135131443200
(dp4652
g1353
g3302
ssI45266183
(dp4653
sI701725963
(dp4654
sI900119151372492801
(dp4655
g1416
g1736
ssI277383725
(dp4656
sI3449148695
(dp4657
g1872
g2396
ssI813858525055172608
(dp4658
g1393
g3240
ssI875313173083164673
(dp4659
g1606
g3214
ssI2990264100
(dp4660
g1361
g2689
ssI50769180
(dp4661
sI19072286
(dp4662
sI800494468310761472
(dp4663
sI79923701
(dp4664
sI906585765651652609
(dp4665
g1353
g3298
ssI16714630
(dp4666
sI816078756360097792
(dp4667
g1371
g3541
ssI855756072
(dp4668
sI18222378
(dp4669
sI2458762802
(dp4670
g1487
g2134
ssI150887728
(dp4671
sI28880869
(dp4672
g1393
g3243
ssI165297460
(dp4673
g1343
g1450
ssI19397942
(dp4674
sI18378044
(dp4675
sI247459133
(dp4676
sI861102310478548992
(dp4677
g1371
g3538
ssI941686081
(dp4678
sI906577131869806594
(dp4679
g1462
g2550
ssI548687171
(dp4680
sI21558596
(dp4681
g1379
g3051
ssI37764422
(dp4682
sI278240583
(dp4683
sI872253703188774912
(dp4684
g1379
g3054
ssI828052364
(dp4685
g1706
g1815
ssI48055626
(dp4686
g1840
g2747
ssI2980703969
(dp4687
g1371
g3552
ssI8453452
(dp4688
sI118818125
(dp4689
g1332
g1671
ssI743211192823517184
(dp4690
sI147961168
(dp4691
sI335534204
(dp4692
sI856646196378710017
(dp4693
sI19586276
(dp4694
sI805433385623568385
(dp4695
sI92695098
(dp4696
sI906590918307807232
(dp4697
g1309
g1578
ssI811480199938396160
(dp4698
g1371
g3535
ssI246248801
(dp4699
sI70544738
(dp4700
I829789919744761856
g3402
sI37999041
g1935
sI497250434
g1471
sI9300262
g1713
sI48071844
g2629
sI21918310
g2155
sI20150502
g3068
sI24024778
g3511
sI5392522
g1482
sI16442379
g2683
sI2252422987
g2910
sI108698830
g2917
sI846137120209190912
g3840
sI31448660
g3373
sI13212502
g2455
sI898760444533288960
g3347
sI63262233
g3312
sg1316
g1974
sI149180925
g2660
sI443215941
g1380
ssI20150502
(dp4701
sI123418655
(dp4702
g1487
g2141
ssI3152186729
(dp4703
sI172774762
(dp4704
g1476
g2420
ssI22203756
(dp4705
sI252104045
(dp4706
sI801244331487219712
(dp4707
g1316
g1964
ssI810685395377725440
(dp4708
g1340
g2057
ssI40815985
(dp4709
sI228535666
(dp4710
sI40815987
(dp4711
sI19834228
(dp4712
sI40815989
(dp4713
sI2153229686
(dp4714
g1706
g1813
ssI40815991
(dp4715
sI3787536555
(dp4716
g1371
g3549
ssI773522131393077248
(dp4717
g1371
g3550
ssI40815999
(dp4718
sI40816001
(dp4719
sI287624578
(dp4720
g1476
g2422
ssI2714472342
(dp4721
g1706
g1823
ssI800094690666131456
(dp4722
g1316
g1973
ssI270839361
(dp4723
sI57335176
(dp4724
g1606
g3215
ssI22986121
(dp4725
g1316
g1978
ssI817218652391034880
(dp4726
g1419
g2233
ssI890526296794685441
(dp4727
sI2238324110
(dp4728
I134194433
g2964
sI8442372
g2018
sI1228243574
g2171
sI595473415
g2679
sI99362794
g3834
sI57334102
g1786
sI7008972
g2264
sI386263630
g2112
sI3312810864
g2486
sI564173073
g1656
sI873261523
g1950
sI5625972
g1431
sI46476526
g2948
sI88621782
g2274
sI1878473497
g2338
sI19834228
g3086
sI50294938
g1498
sI24716475
g2895
sI359572266
g2380
sI615927039
g3263
ssI719141171847540737
(dp4729
g1393
g3241
ssI2372441490
(dp4730
g1343
g1448
ssI860374943049101313
(dp4731
sI17881816
(dp4732
g1393
g3254
ssI892152461082984449
(dp4733
g1353
g3307
ssI862729021557223425
(dp4734
g1490
g1879
ssI828934258769158146
(dp4735
g1306
g2518
ssI809743447246733312
(dp4736
sI2168866206
(dp4737
g1606
g3228
ssI904929019136704512
(dp4738
g1462
g2545
ssI14366112
(dp4739
g1361
g2687
ssI134921444
(dp4740
sI860070224820875265
(dp4741
g1430
g3110
ssI90348965
(dp4742
sI708217319130943488
(dp4743
g1306
g2519
ssI197567914
(dp4744
g1332
g1669
ssI40815337
(dp4745
g1356
g1766
ssI23158189
(dp4746
sI335287726
(dp4747
g1364
g1698
ssI471672239
(dp4748
sI2881274440
(dp4749
g1416
g1741
ssI292146610
(dp4750
g1430
g3119
ssI885743171845488641
(dp4751
g1340
g2048
ssI1932676536
(dp4752
g1487
g2138
ssI447137209
(dp4753
sI75541946
(dp4754
sI3150275487
(dp4755
g1306
g2535
ssI79386044
(dp4756
g1476
g2419
ssI1055490565
(dp4757
sI3468502462
(dp4758
g1343
g1456
ssI3157312960
(dp4759
g1306
g2527
ssI40814383
(dp4760
sI30313925
(dp4761
sI1345646022
(dp4762
sI215244619
(dp4763
g1393
g3246
ssI93406669
(dp4764
sI8771022
(dp4765
sI630169165
(dp4766
sI1965255073
(dp4767
g1350
g1274
ssI3296742865
(dp4768
g1872
g2399
ssI554468819
(dp4769
sI900436451216830465
(dp4770
g1353
g3294
ssI4690290134
(dp4771
sI27966935
(dp4772
sI102401151
(dp4773
sI1029295578
(dp4774
sI19113435
(dp4775
sI805538910394785793
(dp4776
g1840
g2758
ssI828051573725134848
(dp4777
g1416
g1739
ssI505083
(dp4778
sI231673318
(dp4779
sI18906599
(dp4780
g1476
g2421
ssI759871070136598528
(dp4781
g1413
g3603
ssI4804296170
(dp4782
I149099539
g2703
sI103622347
g2814
sI55181796
g1989
sI52264741
g2284
sI1689702150
g2066
sI2508941658
g1830
sI1729822376
g3477
sI35171273
g2613
sI399358955
g2654
sI1548475308
g2586
sI3146359696
g2538
sI1345476306
g1607
sI5099091
g3235
sI444470743
g3828
sI554666554
g2089
sg1289
g3421
sI852772124
g2494
sI2242922330
g3680
sI1832479814
g2776
sI501270879
g1835
ssI51506610
(dp4783
sI223671790
(dp4784
g1524
g1798
ssI15416816
(dp4785
g1416
g1748
ssI5099091
(dp4786
sI1339835893
(dp4787
sI2763795958
(dp4788
g1413
g3604
sI2840744001
g2068
sI791810860431781888
g2936
sI752622469144510464
g2864
sI784786703923970049
g2457
sI212113098
g1537
sI278240583
g3020
sI403720013
g1394
sI812420862272032768
g2658
sI2292315569
g2889
sI2397625714
g1521
sI2151498931
g2737
sI18944903
g2505
sI2564370638
g1555
sI191166134
g3490
sI3408938848
g2770
sI19837528
g1425
sI4002649757
g2348
sI2191403582
g2095
sI835914152027750400
g3616
ssI276514295
(dp4789
sI615927039
(dp4790
sI4022842876
(dp4791
g1350
g1279
ssI2159138301
(dp4792
g1316
g1981
ssI179043039
(dp4793
sI16340480
(dp4794
g1430
g3111
ssI770299631909691392
(dp4795
sI906289871764963328
(dp4796
g1434
g1636
ssI292083207
(dp4797
sI171968009
(dp4798
sI14941706
(dp4799
sI3063995915
(dp4800
g1487
g2130
ssI3643403789
(dp4801
g1416
g1746
ssI197731854
(dp4802
sI19373583
(dp4803
sI20490840
(dp4804
g1524
g1804
ssI2874539538
(dp4805
g1487
g2139
ssI848390189491802112
(dp4806
g1371
g3548
ssI90727790
(dp4807
g1606
g3218
ssI809920015298424832
(dp4808
g1406
g2374
ssI357606935
(dp4809
I822215673812119553
g2579
sI970207298
g1373
sI16264003
g2442
sI30313925
g3175
sI17171111
g3836
sI61636488
g3735
sI718519004
g2282
sI16113639
g3830
sI8771022
g3182
sI98554447
g2114
sI93673775
g3628
sI17891273
g3798
sI26322920
g3832
sI477667743
g1899
sI1339835893
g3238
sI108628599
g2173
sI223166587
g1460
sI20659868
g3462
sI117743669
g1354
sI887878687
g1535
ssI63262233
(dp4810
sI9477212
(dp4811
sI3129024027
(dp4812
g1343
g1454
ssI22703645
(dp4813
sI20545055
(dp4814
sI627463714
(dp4815
g1524
g1790
ssI155390555
(dp4816
sI724924108400672769
(dp4817
sI219582726
(dp4818
sI2425410558
(dp4819
sI124002304
(dp4820
sI3131448873
(dp4821
g1413
g3597
ssI906252573732208640
(dp4822
g1336
g3784
ssI86165426
(dp4823
sI533202479
(dp4824
sI21526685
(dp4825
sI501104471
(dp4826
sI304966579
(dp4827
sI4366246647
(dp4828
g1840
g2748
ssI900073700178919425
(dp4829
g1350
g1268
ssI898760444533288960
(dp4830
g1379
g3048
ssI906589963206184961
(dp4831
g1434
g1631
ssI740597986846203904
(dp4832
g1524
g1788
ssI197336641
(dp4833
g1332
g1676
ssI18105922
(dp4834
sI18341444
(dp4835
sI77686342
(dp4836
sI833376066966167552
(dp4837
sI780186726228750336
(dp4838
g1524
g1805
ssI493334089
(dp4839
sI14067639
(dp4840
g1524
g1803
ssI17006157
(dp4841
sI545361165
(dp4842
sI231442000
(dp4843
sI2325495378
(dp4844
sI858940238273683456
(dp4845
g1416
g1753
ssI31448660
(dp4846
sI2863488598
(dp4847
sI864928799603011591
(dp4848
sI362438233
(dp4849
g1706
g1814
ssI712240414166634496
(dp4850
sI4171431515
(dp4851
g1840
g2756
ssI807677164023844864
(dp4852
sI418991709
(dp4853
g1364
g1704
ssI4003911263
(dp4854
g1350
g1281
ssI702117062437695489
(dp4855
g1419
g2237
ssI942655830
(dp4856
g1430
g3121
ssI20713061
(dp4857
sI31080039
(dp4858
sI117278313
(dp4859
g1706
g1824
ssI72568426
(dp4860
sI416647783
(dp4861
g1476
g2417
ssI18970220
(dp4862
sI196032110
(dp4863
sI77216701
(dp4864
g1476
g2433
ssI829789919744761856
(dp4865
g1379
g3047
ssI705324658
(dp4866
sI2153016948
(dp4867
sI261371509
(dp4868
sI99868278
(dp4869
sI2176745083
(dp4870
I802392555807735808
g1541
sI830813993824636928
g3766
sI4643811147
g2107
sI19685572
g1543
sI548625029
g2189
sI2543408102
g2644
sI872075482384224257
g3562
sI96071944
g1628
sI231673318
g3206
sI299558731
g3664
sI2204463980
g2479
sI859543363606896641
g2355
sI606667727
g2618
sI1660862130
g3486
sI900031402845978627
g1290
sI868637460
g2336
sI2247355933
g2881
sI16249213
g1861
sI14306430
g2833
sI849039681996165120
g2839
ssI1400555132
(dp4871
g1350
g1278
ssI519753341
(dp4872
g1872
g2402
ssI197676671
(dp4873
sI3245667971
(dp4874
g1413
g3593
ssI465544836
(dp4875
sI906587112325238784
(dp4876
g1353
g3297
ssI906578165648171008
(dp4877
g1353
g3301
ssI446620951
(dp4878
g1416
g1752
ssI249829698
(dp4879
g1413
g3598
ssI256793538
(dp4880
sI133430928
(dp4881
sI2341332625
(dp4882
g1487
g2137
ssI1955597970
(dp4883
sI2884538307
(dp4884
sI4824813166
(dp4885
sI822844948433301504
(dp4886
g1524
g1802
ssI64003736
(dp4887
sI321037252
(dp4888
sI69675599
(dp4889
sI20659868
(dp4890
sI865721143369506816
(dp4891
g1872
g2391
ssI83738272
(dp4892
sI217732769
(dp4893
sI197717666
(dp4894
sI3301481896
(dp4895
g1306
g2521
ssI906482187284959233
(dp4896
g1309
g1568
ssI299734693
(dp4897
sI843763706676854784
(dp4898
g1393
g3250
ssI1729822376
(dp4899
sI633992873
(dp4900
sI25959064
(dp4901
g1706
g1825
ssI2399120804
(dp4902
g1706
g1812
ssI14466732
(dp4903
sI132489842
(dp4904
g1706
g1821
ssI1660862130
(dp4905
g1289
g3426
ssI2208812724
(dp4906
g1840
g2753
ssI3078420766
(dp4907
g1350
g1280
ssI191166134
(dp4908
sI257796800
(dp4909
sI2383492793
(dp4910
g1413
g3606
ssI801959011247484928
(dp4911
sI197752508
(dp4912
g1332
g1664
ssI117269671
(dp4913
g1364
g1691
ssI866392710411948032
(dp4914
g1350
g1263
ssI886318841260802049
(dp4915
g1340
g2059
ssI898811912699482112
(dp4916
g1299
g2853
ssI906590945742868482
(dp4917
g1309
g1562
ssI3120443075
(dp4918
g1353
g3305
ssI800085998986149889
(dp4919
g1343
g1440
ssI16378486
(dp4920
sI840943865133703168
(dp4921
g1379
g3060
ssI50600062
(dp4922
sI24024778
(dp4923
sI826217983290769410
(dp4924
I747807250819981312
g2262
sI887063489625325572
g1465
sI1371618385
g2788
sI790728
g1549
sI2908510858
g2194
sI384951307
g1376
sI1169637804
g1915
sI20880206
g2447
sg1462
g2542
sI25073877
g1575
sI19397942
g3005
sI34209496
g3524
sI1404590618
g2037
sI302593083
g2763
sI7587032
g2925
ssI698153378757660672
(dp4925
sI40815457
(dp4926
sI894352469744001024
(dp4927
g1316
g1968
ssI1472026321
(dp4928
g1413
g3600
ssI211037906
(dp4929
g1406
g2367
ssI38721239
(dp4930
sI34209496
(dp4931
sI213698852
(dp4932
sI185954863
(dp4933
sI46120911
(dp4934
g1343
g1446
ssI826312252085112832
(dp4935
g1371
g3553
ssI743071503642566657
(dp4936
g1350
g1277
ssI2388207329
(dp4937
g1413
g3607
ssI39835363
(dp4938
I83738272
g3466
sI941686081
g3012
sI970207298
g1372
sI2273656646
g3662
sI840449932108558336
g2662
sI45266183
g2972
sI50393960
g2475
sI29442313
g1645
sg1353
g3299
sI813853845562466304
g2951
sI587165439
g3582
sI759251
g2302
sI5402612
g3847
sI216776631
g3775
sI1330457336
g2310
sI19397785
g2158
sI409486555
g2929
sI335534204
g3033
sI807095
g3859
sI79293791
g1493
ssI39710722
(dp4939
sI974802661
(dp4940
g1413
g3602
ssI359540454
(dp4941
g1487
g2127
ssI124229352
(dp4942
sI872075482384224257
(dp4943
g1289
g3418
ssI903475806655045633
(dp4944
g1419
g2241
ssI15935213
(dp4945
sI50055701
(dp4946
sI330509973
(dp4947
g1419
g2247
ssI161715155
(dp4948
sI52009598
(dp4949
sI904932281285881856
(dp4950
g1419
g2236
ssI413253370
(dp4951
sI246430286
(dp4952
g1343
g1445
ssI40815621
(dp4953
sI2305384189
(dp4954
sI587165439
(dp4955
sI906588826885173248
(dp4956
g1309
g1561
ssI856473488659537920
(dp4957
g1430
g3109
ssI185374468
(dp4958
sI40814121
(dp4959
g1356
g1773
ssI906590907608195072
(dp4960
g1309
g1567
ssI882645123196231680
(dp4961
I801959011247484928
g3495
sI742042196803739649
g2732
sg1416
g1743
sI1485733987
g1414
sI130957956
g2187
sI972558726
g1711
sI1436549250
g2329
sI100827937
g2350
sI3152186729
g3071
sI44196397
g2077
sI19373583
g3284
sI755821622641254401
g1996
sI702739245195096065
g3673
sI791306523062497280
g3849
sI101331661
g2266
sI2174463928
g3778
sI2567908676
g3751
sI190404578
g3657
sI704505328956784641
g2810
sI2917670014
g2305
sI856646196378710017
g3035
ssI202258185
(dp4962
g1364
g1690
ssI4910329610
(dp4963
sI151295755
(dp4964
sI835914152027750400
(dp4965
sI173699375
(dp4966
sI20963090
(dp4967
g1840
g2751
ssI2978414355
(dp4968
sI2894114580
(dp4969
sI716386643213574144
(dp4970
sI813750042
(dp4971
g1364
g1702
ssI93673775
(dp4972
sI57779998
(dp4973
sI64997151
(dp4974
g1361
g2698
ssI162205472
(dp4975
g1487
g2136
ssI3274699908
(dp4976
g1872
g2392
ssI906588853120720897
(dp4977
g1462
g2546
ssI1932851846
(dp4978
sI56561449
(dp4979
sI197812010
(dp4980
sI906588368108224512
(dp4981
g1462
g2540
ssI431413036
(dp4982
g1364
g1692
ssI860137000686338048
(dp4983
g1406
g2368
ssI3734732592
(dp4984
sI4905251806
(dp4985
sI773397580051017728
(dp4986
g1430
g3124
ssI279827082
(dp4987
sI2191169342
(dp4988
g1872
g2408
ssI3082022719
(dp4989
g1340
g2055
ssI3441047360
(dp4990
sI190404578
(dp4991
sI420396862
(dp4992
g1343
g1457
ssI20479813
(dp4993
sI2273656646
(dp4994
sI299558731
(dp4995
g1289
g3422
ssI24594252
(dp4996
g1606
g3217
ssI1300301
(dp4997
g1379
g3058
ssI419918470
(dp4998
sI115414863
(dp4999
g1476
g2423
ssI9207632
(dp5000
sI702739245195096065
(dp5001
sI3417556319
(dp5002
g1872
g2406
ssI2872661847
(dp5003
g1379
g3050
ssI14400484
(dp5004
sI2242922330
(dp5005
sI191889245
(dp5006
sI50476895
(dp5007
sI4121225056
(dp5008
sI2247018338
(dp5009
sI2892875619
(dp5010
g1487
g2125
ssI839177690544488449
(dp5011
g1375
g3513
ssI197680102
(dp5012
g1364
g1687
ssI50329448
(dp5013
sI322293052
(dp5014
sI2892572588
(dp5015
sI14781534
(dp5016
sI757667003092140032
(dp5017
sI280860526
(dp5018
sI122339183
(dp5019
g1332
g1672
ssI48927836
(dp5020
g1840
g2757
ssI180733809
(dp5021
sI121204594
(dp5022
sI33648499
(dp5023
sI128724853
(dp5024
g1289
g3428
ssI879005499932278788
(dp5025
sI1890938744
(dp5026
sI906591142527070208
(dp5027
g1309
g1560
ssI709878752793133056
(dp5028
g1343
g1458
ssI275476458
(dp5029
sI906590318207881218
(dp5030
g1434
g1651
ssI858513720925978624
(dp5031
g1413
g3591
ssI19255509
(dp5032
sI729676086632656900
(dp5033
sI21655428
(dp5034
sI118896517
(dp5035
g1332
g1665
ssI906590421572186112
(dp5036
g1434
g1644
ssI58105735
(dp5037
sI61636488
(dp5038
sI171020169
(dp5039
g1416
g1742
ssI70938507
(dp5040
sI21431618
(dp5041
sI293167768
(dp5042
sI28754963
(dp5043
g1419
g2245
ssI2830667667
(dp5044
g1487
g2135
ssI211269614
(dp5045
sI884677621547757568
(dp5046
g1524
g1793
ssI66467735
(dp5047
g1379
g3064
ssI1587890072
(dp5048
g1406
g2373
ssI2567908676
(dp5049
sI134891503
(dp5050
g1306
g2525
ssI108247668
(dp5051
sI891796727791005697
(dp5052
g1316
g1969
ssI721519833561477120
(dp5053
g1364
g1685
ssI705488139091972096
(dp5054
g1350
g1275
ssI906586306834132993
(dp5055
g1353
g3295
ssI81810611
(dp5056
sI47032231
(dp5057
sI149891740
(dp5058
g1343
g1455
ssI901767932304392192
(dp5059
g1289
g3413
ssI830813993824636928
(dp5060
g1289
g3427
ssI94195631
(dp5061
g1289
g3425
ssI2590257072
(dp5062
g1524
g1799
ssI236631986
(dp5063
g1332
g1674
ssI112621492
(dp5064
g1379
g3062
ssI3091808182
(dp5065
sI216776631
(dp5066
sI2174463928
(dp5067
sI709774998874013696
(dp5068
g1419
g2242
ssI878604381050032129
(dp5069
g1379
g3053
ssI14084825
(dp5070
sI906587359768203266
(dp5071
I891384910921048064
g1437
sI906252573732208640
g3333
sI39710722
g3556
sI63692643
g2792
sI118115748
g1960
sI767995186605686784
g1337
sI51506610
g3231
sI280130770
g2921
sI29442313
g1635
sI1915534530
g1527
sI136729742
g2848
sI533202479
g3337
sg1462
g2548
sI2945101330
g2821
sI425819395
g2966
sI19072286
g2986
sI38721239
g3522
sI50712079
g2800
sI481461757
g2953
sI2425410558
g3328
sI23186079
g1347
ssI587191730
(dp5072
sI18442178
(dp5073
g1434
g1640
ssI735275750505340928
(dp5074
sI606211203
(dp5075
sI897368871669084160
(dp5076
g1430
g3126
ssI2900662775
(dp5077
sI17891273
(dp5078
sI2717044682
(dp5079
g1524
g1795
ssI17475575
(dp5080
sI613398477
(dp5081
sI322953166
(dp5082
sI869771321911148544
(dp5083
sI21878736
(dp5084
g1406
g2369
ssI157638614
(dp5085
g1606
g3223
ssI40815151
(dp5086
g1356
g1774
ssI813048057973587968
(dp5087
sI844629005760385024
(dp5088
sI286261212
(dp5089
g1476
g2432
ssI91285471
(dp5090
sI55570400
(dp5091
sI21954529
(dp5092
sI2457429986
(dp5093
g1316
g1982
ssI800707492346925056
(dp5094
sI49879012
(dp5095
g1476
g2430
ssI40814565
(dp5096
g1356
g1762
ssI444470743
(dp5097
sI16113639
(dp5098
sI26322920
(dp5099
sI99362794
(dp5100
sI17171111
(dp5101
sI905742450274082816
(dp5102
g1524
g1789
ssI906124632155181056
(dp5103
g1316
g1963
ssI846137120209190912
(dp5104
sI64397992
(dp5105
sI302618611
(dp5106
sI5402612
(dp5107
sI791306523062497280
(dp5108
sI1087440553
(dp5109
g1872
g2395
ssI803449034019110913
(dp5110
sI19058681
(dp5111
sI40815799
(dp5112
sI807095
(dp5113
sI40814591
(dp5114
g1356
g1778
sssb.