ccopy_reg
_reconstructor
p1
(cnetworkx.classes.digraph
DiGraph
p2
c__builtin__
object
p3
NtRp4
(dp5
S'node'
p6
(dp7
I891384910921048064
(dp8
sI906252573732208640
(dp9
sI39710722
(dp10
sI905127538925727747
(dp11
sI889559479376896004
(dp12
sI768928273812246533
(dp13
sI717968149837119488
(dp14
sI847177160725086209
(dp15
sI891664378579308554
(dp16
sI819666672630071298
(dp17
sI3341555373
(dp18
sI889220266009784321
(dp19
sI906947261434875907
(dp20
sI2510030868
(dp21
sI191529646
(dp22
sI109010968
(dp23
sI885927018067619844
(dp24
sI60231707
(dp25
sI787040422199750661
(dp26
sI363866141
(dp27
sI896437306579701765
(dp28
sI3298385953
(dp29
sI3346556962
(dp30
sI799519849529610240
(dp31
sI710119456534560769
(dp32
sI804037996551012358
(dp33
sI3387844647
(dp34
sI3163650396
(dp35
sI896611194588594176
(dp36
sI307818162
(dp37
sI322076719
(dp38
sI855512461872701442
(dp39
sI874029090164137984
(dp40
sI362119223
(dp41
sI4795336761
(dp42
sI2627455034
(dp43
sI1588881468
(dp44
sI346059786
(dp45
sI121024574
(dp46
sI751340422966960128
(dp47
sI876449158667829250
(dp48
sI869062997687316480
(dp49
sI3023074207
(dp50
sI834686861775880193
(dp51
sI1032583238
(dp52
sI897904801207529478
(dp53
sI2729287754
(dp54
sI2404128843
(dp55
sI855894956451483648
(dp56
sI3377690704
(dp57
sI754025577024221184
(dp58
sI860532597419651073
(dp59
sI1065926743
(dp60
sI1286322264
(dp61
sI24422489
(dp62
sI3164278875
(dp63
sI289299813
(dp64
sI725994526175858688
(dp65
sI708745320
(dp66
sI805461281629175808
(dp67
sI984522858
(dp68
sI2221930610
(dp69
sI258021491
(dp70
sI4243388536
(dp71
sI557949844
(dp72
sI1019390076
(dp73
sI1550733440
(dp74
sI830155375865368576
(dp75
sI431620231
(dp76
sI3409499842
(dp77
sI518391832
(dp78
sI3349342355
(dp79
sI2620911641
(dp80
sI2892077217
(dp81
sI759083082288861185
(dp82
sI888817558643716096
(dp83
sI902824091622703104
(dp84
sI468338716
(dp85
sI897028290476736512
(dp86
sI3402524848
(dp87
sI313536689
(dp88
sI708266424205254656
(dp89
sI4250466994
(dp90
sI2516278799
(dp91
sI1027313850
(dp92
sI3388020767
(dp93
sI2878585546
(dp94
sI906987649046646784
(dp95
sI785063001732833280
(dp96
sI775423106999521282
(dp97
sI2367912133
(dp98
sI874586784281264128
(dp99
sI713766379229458433
(dp100
sI906908169863090176
(dp101
sI1593998029
(dp102
sI888871996779634688
(dp103
sI758643857584189440
(dp104
sI714468816437305344
(dp105
sI3326599384
(dp106
sI472000731
(dp107
sI2645201120
(dp108
sI3078224098
(dp109
sI3065546986
(dp110
sI2934927597
(dp111
sI340308206
(dp112
sI4440213743
(dp113
sI2308708595
(dp114
sI252332089
(dp115
sI3253815544
(dp116
sI746871699103223809
(dp117
sI724844861002768384
(dp118
sI864938904138469377
(dp119
sI481952811
(dp120
sI883426467551600640
(dp121
sI4924308645
(dp122
sI828436568914403328
(dp123
sI2330093832
(dp124
sI29442313
(dp125
sI3351124235
(dp126
sI578449794
(dp127
sI212573765
(dp128
sI3749445677
(dp129
sI2881186073
(dp130
sI2598158618
(dp131
sI2734266653
(dp132
sI765691193154015232
(dp133
sI3082533152
(dp134
sI711972175528534017
(dp135
sI2669580583
(dp136
sI3309588777
(dp137
sI961129436
(dp138
sI3920802093
(dp139
sI494237065
(dp140
sI593682747
(dp141
sI1327925564
(dp142
sI354875711
(dp143
sI782476241383350272
(dp144
sI863814457344086016
(dp145
sI906513803583553536
(dp146
sI738090230616600576
(dp147
sI2312722764
(dp148
sI862347613454127104
(dp149
sI2949966160
(dp150
sI1478246737
(dp151
sI3327037779
(dp152
sI318607700
(dp153
sI466880853
(dp154
sI900286645001490433
(dp155
sI482054488
(dp156
sI790146116058746880
(dp157
sI2935204191
(dp158
sI984426848
(dp159
sI269039972
(dp160
sI807339629817004032
(dp161
sI2867489511
(dp162
sI4646222189
(dp163
sI3231334461
(dp164
sI791034076320952320
(dp165
sI2515178217
(dp166
sI901162103071019008
(dp167
sI2563584379
(dp168
sI1516054908
(dp169
sI75960384
(dp170
sI755465712706154496
(dp171
sI1024559492
(dp172
sI934977925
(dp173
sI834765994711199744
(dp174
sI118664959
(dp175
sI853218161893814272
(dp176
sI836298369949700098
(dp177
sI616493066
(dp178
sI119071123
(dp179
sI299739540
(dp180
sI290152854
(dp181
sI3762086296
(dp182
sI906225256792240128
(dp183
sI2667908849
(dp184
sI291656105
(dp185
sI4104255916
(dp186
sI843422518014894081
(dp187
sI3291347915
(dp188
sI711964407119499264
(dp189
sI3351359925
(dp190
sI1031510454
(dp191
sI731080759
(dp192
sI2664841658
(dp193
sI110173599
(dp194
sI769932383185436672
(dp195
sI3062096321
(dp196
sI828689735577120770
(dp197
sI2315444982
(dp198
sI4122606023
(dp199
sI755318547950206976
(dp200
sI729793005847236608
(dp201
sI368480642
(dp202
sI906940670694363136
(dp203
sI296331730
(dp204
sI882246838472122368
(dp205
sI446291651
(dp206
sI504971736
(dp207
sI118115748
(dp208
sI733170139
(dp209
sI790207364309848064
(dp210
sI519694757
(dp211
sI839517734085996547
(dp212
sI895989138444431361
(dp213
sI420585955
(dp214
sI2972662246
(dp215
sI3027173874
(dp216
sI264358387
(dp217
sI2570865406
(dp218
sI744800465683001346
(dp219
sI3402572283
(dp220
sI585767420
(dp221
sI835952812433551364
(dp222
sI785063349889499136
(dp223
sI96863659
(dp224
sI833693418815635456
(dp225
sI906934017622245376
(dp226
sI2490720780
(dp227
sI762008078
(dp228
sI101004717
(dp229
sI256451091
(dp230
sI442838446
(dp231
sI269873241
(dp232
sI2255438360
(dp233
sI905773888226951169
(dp234
sI887063820635713537
(dp235
sI835212587738480641
(dp236
sI315932422
(dp237
sI886143734655713280
(dp238
sI444195372
(dp239
sI735069782186283008
(dp240
sI2902641209
(dp241
sI894576985581785088
(dp242
sI2941033024
(dp243
sI1605734977
(dp244
sI778607459032236032
(dp245
sI506382921
(dp246
sI64418378
(dp247
sI289016395
(dp248
sI846657293563383808
(dp249
sI1260509828
(dp250
sI884104663221641216
(dp251
sI1854414908
(dp252
sI813347658836377601
(dp253
sI312652379
(dp254
sI1416032862
(dp255
sI3325319596
(dp256
sI314727009
(dp257
sI239082087
(dp258
sI402988831
(dp259
sI755777853195714560
(dp260
sI2933193323
(dp261
sI1488960109
(dp262
sI826547056873525248
(dp263
sI414577263
(dp264
sI832947903471767552
(dp265
sI817239688423600128
(dp266
sI2996588649
(dp267
sI469604986
(dp268
sI185131114
(dp269
sI3065653887
(dp270
sI957923970
(dp271
sI43332228
(dp272
sI906754562375241728
(dp273
sI2256904580
(dp274
sI4394433165
(dp275
sI628415124
(dp276
sI897421076149534721
(dp277
sI880019981131542528
(dp278
sI373811867
(dp279
sI717779482682265600
(dp280
sI23186079
(dp281
sI4841550496
(dp282
sI2202862243
(dp283
sI898253247986749441
(dp284
sI2845350565
(dp285
sI868166310
(dp286
sI830855904157376512
(dp287
sI784696235882151936
(dp288
sI2214671021
(dp289
sI369554094
(dp290
sI741521214808727552
(dp291
sI303329971
(dp292
sI1086338846
(dp293
sI893128736320761858
(dp294
sI840656785669275648
(dp295
sI904331546487869440
(dp296
sI759338709057691648
(dp297
sI3374635713
(dp298
sI1380061890
(dp299
sI3327869638
(dp300
sI764433861472288768
(dp301
sI733374201210490881
(dp302
sI2682043082
(dp303
sI883523294737125376
(dp304
sI902592004340801537
(dp305
sI3038992504
(dp306
sI2845516498
(dp307
sI20912932
(dp308
sI2699809498
(dp309
sI3438267472
(dp310
sI475165406
(dp311
sI1579244256
(dp312
sI858901746101473281
(dp313
sI101057250
(dp314
sI3248015945
(dp315
sI711636070874685440
(dp316
sI803141974480027648
(dp317
sI435770093
(dp318
sI778587580577226752
(dp319
sI19485425
(dp320
sI879648680046993412
(dp321
sI621093619
(dp322
sI556139252
(dp323
sI537303798
(dp324
sI2746491639
(dp325
sI4149056254
(dp326
sI789514452009967616
(dp327
sI1106420484
(dp328
sI766705328142573568
(dp329
sI871354539072507905
(dp330
sI327535370
(dp331
sI1330950924
(dp332
sI3374729997
(dp333
sI2706432783
(dp334
sI1212889872
(dp335
sI267158659
(dp336
sI1215238932
(dp337
sI799650628477874176
(dp338
sI3018994137
(dp339
sI794141441169702912
(dp340
sI592071715
(dp341
sI823501316764958720
(dp342
sI333589281
(dp343
sI885812941802659841
(dp344
sI773860142
(dp345
sI235830749
(dp346
sI859865121660784640
(dp347
sI903188160640897025
(dp348
sI3007144764
(dp349
sI831271008271212545
(dp350
sI1566542654
(dp351
sI2472215359
(dp352
sI1490979648
(dp353
sI270322497
(dp354
sI810446985920651264
(dp355
sI883367303081074688
(dp356
sI896274914025537536
(dp357
sI902634861013454850
(dp358
sI375624524
(dp359
sI90428242
(dp360
sI729979235025211392
(dp361
sI1680694100
(dp362
sI941556013
(dp363
sI886238298791915520
(dp364
sI47039322
(dp365
sI809878332334600192
(dp366
sI2405118814
(dp367
sI885075773736050691
(dp368
sI2438644579
(dp369
sI1568074596
(dp370
sI1630362470
(dp371
sI2706778985
(dp372
sI506229614
(dp373
sI3049888623
(dp374
sI3305257840
(dp375
sI2755341170
(dp376
sI761294337317728256
(dp377
sI881830838081642500
(dp378
sI392870784
(dp379
sI3050517378
(dp380
sI976180099
(dp381
sI758196265243013120
(dp382
sI353079105
(dp383
sI317757634
(dp384
sI1593715597
(dp385
sI1617546126
(dp386
sI3592950672
(dp387
sI472096892
(dp388
sI2325496723
(dp389
sI2884639636
(dp390
sI310449047
(dp391
sI709612440
(dp392
sI842129187557236741
(dp393
sI44330614
(dp394
sI897642935747039234
(dp395
sI317455264
(dp396
sI2658661872
(dp397
sI847821912365510660
(dp398
sI903617507776491521
(dp399
sI906053382410051584
(dp400
sI223189930
(dp401
sI897148821444198400
(dp402
sI3435951377
(dp403
sI96871343
(dp404
sI2958271408
(dp405
sI543310769
(dp406
sI2249120692
(dp407
sI2203141278
(dp408
sI3346410424
(dp409
sI3160896441
(dp410
sI891339320078028800
(dp411
sI887356330129985536
(dp412
sI2999466945
(dp413
sI790684456713613314
(dp414
sI323349444
(dp415
sI174615828
(dp416
sI832864937269657600
(dp417
sI3794041335
(dp418
sI2336199629
(dp419
sI712341891547840512
(dp420
sI906967396115783680
(dp421
sI246287318
(dp422
sI278584484
(dp423
sI855890197795524609
(dp424
sI897990442981240832
(dp425
sI177256613
(dp426
sI370371553
(dp427
sI4428286948
(dp428
sI960775141
(dp429
sI903694918652219393
(dp430
sI3302105596
(dp431
sI944341994
(dp432
sI877692358254612480
(dp433
sI2697587695
(dp434
sI707011235217285120
(dp435
sI897112711041089536
(dp436
sI2909333110
(dp437
sI2308871678
(dp438
sI4906376182
(dp439
sI3247942647
(dp440
sI2715780092
(dp441
sI831238665531715588
(dp442
sI453817343
(dp443
sI306436098
(dp444
sI44094466
(dp445
sI3035341827
(dp446
sI2805619716
(dp447
sI767995186605686784
(dp448
sI184419338
(dp449
sI820229634
(dp450
sI334365711
(dp451
sI711863192088125440
(dp452
sI106132499
(dp453
sI2268005400
(dp454
sI900456611860410373
(dp455
sI4319214621
(dp456
sI2643381281
(dp457
sI494998562
(dp458
sI877237559306407936
(dp459
sI906977063449624577
(dp460
sI2751194152
(dp461
sI2389371947
(dp462
sI2931092526
(dp463
sI1279827002
(dp464
sI902593654841376770
(dp465
sI841186217198784512
(dp466
sI899260812275089408
(dp467
sI114204514
(dp468
sI2608010318
(dp469
sI886671524668858368
(dp470
sI2361401528
(dp471
sI879049231650234368
(dp472
sI880590468320571393
(dp473
sI2811354639
(dp474
sI815976846521143296
(dp475
sI1493820511
(dp476
sI270418963
(dp477
sI3324421217
(dp478
sI936604771
(dp479
sI306263143
(dp480
sI1890679914
(dp481
sI3051961874
(dp482
sI825488766748020736
(dp483
sI2273055855
(dp484
sI885797795780845569
(dp485
sI3710757395
(dp486
sI784477688979451904
(dp487
sI137934405
(dp488
sI1540643960
(dp489
sI22064251
(dp490
sI3291460736
(dp491
sI169270401
(dp492
sI894526659101155328
(dp493
sI897202350502416384
(dp494
sI845627225516969984
(dp495
sI156202119
(dp496
sI3070413495
(dp497
sI2638257292
(dp498
sI991709378
(dp499
sI136729742
(dp500
sI1295719572
(dp501
sI904859433469177856
(dp502
sI870757237094051840
(dp503
sI2710582428
(dp504
sI759571157448331264
(dp505
sI928199839
(dp506
sI743064432
(dp507
sI896697378262192129
(dp508
sI233694406
(dp509
sI848635831199944708
(dp510
sI3436936359
(dp511
sI4039894185
(dp512
sI906983148193546240
(dp513
sI1242977138
(dp514
sI4189297841
(dp515
sI83705010
(dp516
sI1047989431
(dp517
sI884122792026927104
(dp518
sI394284461
(dp519
sI252529850
(dp520
sI3116389565
(dp521
sI1487393983
(dp522
sI1915534530
(dp523
sI582669510
(dp524
sI1629459656
(dp525
sI859532256829997056
(dp526
sI298040523
(dp527
sI906969480550592518
(dp528
sI280130770
(dp529
sI100273699
(dp530
sI547931350
(dp531
sI1603552471
(dp532
sI344012417
(dp533
sI902102511854727168
(dp534
sI2437086428
(dp535
sI291069152
(dp536
sI253299939
(dp537
sI791707249324490752
(dp538
sI88167658
(dp539
sI207213805
(dp540
sI421198573
(dp541
sI2466520308
(dp542
sI1617304747
(dp543
sI873958369756930048
(dp544
sI1429056762
(dp545
sI715329805433094146
(dp546
sI1596239100
(dp547
sI2213803262
(dp548
sI3387381779
(dp549
sI2478685441
(dp550
sI425819395
(dp551
sI181513716
(dp552
sI885742477461921792
(dp553
sI396695111
(dp554
sI893825822699728896
(dp555
sI3246748343
(dp556
sI117763342
(dp557
sI843441339840843776
(dp558
sI3677748496
(dp559
sI4242265361
(dp560
sI1307499794
(dp561
sI1125973268
(dp562
sI3794943256
(dp563
sI906968274994434049
(dp564
sI3108605957
(dp565
sI19072286
(dp566
sI3401781125
(dp567
sI872841928555077633
(dp568
sI2201793829
(dp569
sI809304613576908800
(dp570
sI869261554277113858
(dp571
sI388771113
(dp572
sI835623556503449600
(dp573
sI2493107502
(dp574
sI4839859503
(dp575
sI3329195313
(dp576
sI902654044992409606
(dp577
sI847180687077785602
(dp578
sI3701744957
(dp579
sI1657224510
(dp580
sI713366847
(dp581
sI869150312401182722
(dp582
sI773956253882146816
(dp583
sI880460393457569792
(dp584
sI768577061560672256
(dp585
sI868121908151296000
(dp586
sI2415011159
(dp587
sI347753817
(dp588
sI778284443710676992
(dp589
sI899289780676165632
(dp590
sI829046866675372032
(dp591
sI3415590238
(dp592
sI154493840
(dp593
sI893181474974744576
(dp594
sI417434981
(dp595
sI880781226709331968
(dp596
sI461284712
(dp597
sI274505066
(dp598
sI358853997
(dp599
sI802843363036766208
(dp600
sI706907668171124736
(dp601
sI899750108253868032
(dp602
sI888048028342472704
(dp603
sI186938747
(dp604
sI4873068778
(dp605
sI876191141749825540
(dp606
sI836178363995815936
(dp607
sI894192879014469632
(dp608
sI892467846567079936
(dp609
sI346203529
(dp610
sI269503883
(dp611
sI905793705369624577
(dp612
sI155491224
(dp613
sI3292253586
(dp614
sI886146781331025920
(dp615
sI891906900903813121
(dp616
sI2179212700
(dp617
sI876161990397394944
(dp618
sI721800608
(dp619
sI3014421922
(dp620
sI169131427
(dp621
sI885626317294776321
(dp622
sI2198091174
(dp623
sI2243227047
(dp624
sI303959465
(dp625
sI782322276675059712
(dp626
sI770704248954912768
(dp627
sI4704572845
(dp628
sI768400634697613312
(dp629
sI51506610
(dp630
sI404037047
(dp631
sI1223202234
(dp632
sI734806553795153921
(dp633
sI3094343105
(dp634
sI893584530048790530
(dp635
sI2276625427
(dp636
sI2939133381
(dp637
sI4070120902
(dp638
sI729845191
(dp639
sI296936905
(dp640
sI3994928591
(dp641
sI849678537372180480
(dp642
sI881740822500319232
(dp643
sI2288674262
(dp644
sI904976962392870912
(dp645
sI497171364
(dp646
sI3389562106
(dp647
sI897681766290509825
(dp648
sI819921194036166656
(dp649
sI4284921317
(dp650
sI1704156648
(dp651
sI755635394235031553
(dp652
sI3747716595
(dp653
sI470384116
(dp654
sI2704506110
(dp655
sI370726393
(dp656
sI481461757
(dp657
sI871055690852446212
(dp658
sI1080641024
(dp659
sI635000322
(dp660
sI3321867779
(dp661
sI869745301531357185
(dp662
sI2789150213
(dp663
sI2751819270
(dp664
sI3396189441
(dp665
sI2160721417
(dp666
sI3091678733
(dp667
sI50712079
(dp668
sI2945101330
(dp669
sI337612309
(dp670
sI340821526
(dp671
sI889483509399683072
(dp672
sI195051554
(dp673
sI875039141116993538
(dp674
sI844519966930092033
(dp675
sI900906077675499520
(dp676
sI1265587753
(dp677
sI905104955182383104
(dp678
sI2302930476
(dp679
sI533202479
(dp680
sI2427747889
(dp681
sI3131573811
(dp682
sI884105932304678913
(dp683
sI2396616793
(dp684
sI906484226123591680
(dp685
sI713724139081744384
(dp686
sI756976820625481728
(dp687
sI363820603
(dp688
sI803225918340734976
(dp689
sI1141659205
(dp690
sI832725569066278912
(dp691
sI2472670793
(dp692
sI1160189515
(dp693
sI70377037
(dp694
sI821296724253798400
(dp695
sI1491517009
(dp696
sI390355588
(dp697
sI885846391414771712
(dp698
sI107451662
(dp699
sI793516044816093184
(dp700
sI3208724061
(dp701
sI474127968
(dp702
sI1579980385
(dp703
sI704310298841370624
(dp704
sI889609988200706048
(dp705
sI2425410558
(dp706
sI2727274091
(dp707
sI232799854
(dp708
sI743452810625294336
(dp709
sI543391651
(dp710
sI815275569046814721
(dp711
sI3341999734
(dp712
sI3213291129
(dp713
sI1180221054
(dp714
sI848116675731959810
(dp715
sI906979604111478784
(dp716
sI2250880280
(dp717
sI906917960710868992
(dp718
sI2918080149
(dp719
sI817848020607922176
(dp720
sI4144438935
(dp721
sI333962904
(dp722
sI850375682366595072
(dp723
sI299812510
(dp724
sI1077460640
(dp725
sI906865813969358849
(dp726
sI2328307368
(dp727
sI868136197163556864
(dp728
sI2584108714
(dp729
sI2961088173
(dp730
sI754751925652971521
(dp731
sI217120434
(dp732
sI1565660852
(dp733
sI436432568
(dp734
sI1042540220
(dp735
sI515600063
(dp736
sI1389014720
(dp737
sI900859175030464513
(dp738
sI108394178
(dp739
sI2263815875
(dp740
sI1609965253
(dp741
sI4915406534
(dp742
sI1610244469
(dp743
sI4806784713
(dp744
sI379683447
(dp745
sI857620141118509056
(dp746
sI893923775082901505
(dp747
sI2589990614
(dp748
sI38721239
(dp749
sI802084714706325505
(dp750
sI58738398
(dp751
sI1228494560
(dp752
sI357670627
(dp753
sI1271905574
(dp754
sI322125543
(dp755
sI868204397779668993
(dp756
sI3845988077
(dp757
sI821031326824407040
(dp758
sI1298695921
(dp759
sI2778365682
(dp760
sI2389647093
(dp761
sI448077560
(dp762
sI969096954
(dp763
sI1861840638
(dp764
sI2343610111
(dp765
sI905163320046608384
(dp766
sI613385174
(dp767
sI903883595458207744
(dp768
sI861460630850740224
(dp769
sI599536004
(dp770
sI2751797003
(dp771
sI2273091342
(dp772
sI128591631
(dp773
sI906798942775586817
(dp774
sI114431764
(dp775
sI4319160087
(dp776
sI856403737
(dp777
sI230268702
(dp778
sI336977695
(dp779
sI2182231840
(dp780
sI905089535847096321
(dp781
sI905531757730115584
(dp782
sI906972512650776577
(dp783
sI905730113450508288
(dp784
sI74424108
(dp785
sI1267349293
(dp786
sI2724583215
(dp787
sI765003572
(dp788
sI1219841851
(dp789
sI2387380028
(dp790
sI51042308
(dp791
sI892342742025736192
(dp792
sI738408398300012544
(dp793
sI2848687937
(dp794
sI906948141055926274
(dp795
sI2959961925
(dp796
sI2265673543
(dp797
sI880813214061166592
(dp798
sI3300798283
(dp799
sI3250448206
(dp800
sI875484977164689408
(dp801
sI528296539
(dp802
sI2475845465
(dp803
sI827053288499580928
(dp804
sI3374350173
(dp805
sI2223760357
(dp806
sI366262114
(dp807
sI63692643
(dp808
sI832618154232733701
(dp809
sI802392555807735808
(dp810
sI908130157
(dp811
sI906422811195035648
(dp812
sI807593127120871424
(dp813
sI853631042749698053
(dp814
sI753290592847851520
(dp815
sI2873749766
(dp816
sI808559753794383872
(dp817
sI823854735182753792
(dp818
sI1595481985
(dp819
sI3004735362
(dp820
sI1205575555
(dp821
sI896380708465373185
(dp822
sI737023638
(dp823
sI787021894331592704
(dp824
sI2617710473
(dp825
sI212719501
(dp826
sI626835343
(dp827
sI1519617937
(dp828
sI892122604898840576
(dp829
sI543336346
(dp830
sI890279714375573505
(dp831
sI2968602526
(dp832
sI708048802
(dp833
sI1636335715
(dp834
sI721723193619312641
(dp835
sI3092416421
(dp836
sI901607985641914368
(dp837
sI804959292424077312
(dp838
sI705650612
(dp839
sI893566207588225025
(dp840
sI860415357865140225
(dp841
sI183166915
(dp842
sI4075970055
(dp843
sI4515716422
(dp844
sI861577506075365376
(dp845
sI187099469
(dp846
sI321298384
(dp847
sI3695245517
(dp848
sI3036297891
(dp849
sI784407165146656768
(dp850
sI2729445333
(dp851
sI3522000869
(dp852
sI899036797048696832
(dp853
sI232513512
(dp854
sI883027621600165888
(dp855
sI838762132003045376
(dp856
sI706992278003392512
(dp857
sI764205371699425280
(dp858
sI1622892535
(dp859
sI2325680120
(dp860
sI17158140
(dp861
sI801785410238214148
(dp862
ssS'node_dict_factory'
p863
c__builtin__
dict
p864
sS'edge_attr_dict_factory'
p865
g864
sS'succ'
p866
(dp867
I891384910921048064
(dp868
sI906252573732208640
(dp869
sI39710722
(dp870
I711863192088125440
(dp871
S'weight'
p872
I1
ssI882246838472122368
(dp873
g872
I2
ssI368480642
(dp874
g872
I2
ssI839517734085996547
(dp875
g872
I2
ssI848635831199944708
(dp876
g872
I2
ssI714468816437305344
(dp877
g872
I1
ssI881740822500319232
(dp878
g872
I1
ssI2330093832
(dp879
g872
I1
ssI1603552471
(dp880
g872
I1
ssI2490720780
(dp881
g872
I1
ssI181513716
(dp882
g872
I1
ssI626835343
(dp883
g872
I1
ssI154493840
(dp884
g872
I1
ssI713766379229458433
(dp885
g872
I1
ssI1260509828
(dp886
g872
I1
ssI3246748343
(dp887
g872
I1
ssI212573765
(dp888
g872
I1
ssI44094466
(dp889
g872
I1
ssI708048802
(dp890
g872
I1
ssI893566207588225025
(dp891
g872
I1
ssI4070120902
(dp892
g872
I1
ssI74424108
(dp893
g872
I1
ssI191529646
(dp894
g872
I1
ssI893181474974744576
(dp895
g872
I1
ssI2249120692
(dp896
g872
I1
ssI3070413495
(dp897
g872
I1
ssI436432568
(dp898
g872
I1
ssI2902641209
(dp899
g872
I2
ssI1223202234
(dp900
g872
I1
ssI110173599
(dp901
g872
I1
ssI3007144764
(dp902
g872
I1
ssI51042308
(dp903
g872
I1
ssI75960384
(dp904
g872
I1
ssI3409499842
(dp905
g872
I2
ssI3023074207
(dp906
g872
I1
ssI137934405
(dp907
g872
I1
ssI4915406534
(dp908
g872
I2
ssI729845191
(dp909
g872
I1
ssI64418378
(dp910
g872
I1
ssI731080759
(dp911
g872
I1
ssI3250448206
(dp912
g872
I1
ssI1491517009
(dp913
g872
I1
ssI390355588
(dp914
g872
I1
ssI253299939
(dp915
g872
I1
ssI874029090164137984
(dp916
g872
I1
ssI252332089
(dp917
g872
I1
ssI761294337317728256
(dp918
g872
I2
ssI235830749
(dp919
g872
I1
ssI2664841658
(dp920
g872
I1
ssI1490979648
(dp921
g872
I1
ssI1579980385
(dp922
g872
I2
ssI101057250
(dp923
g872
I1
ssI593682747
(dp924
g872
I1
ssI17158140
(dp925
g872
I1
ssI88167658
(dp926
g872
I1
ssI358853997
(dp927
g872
I1
ssI19485425
(dp928
g872
I1
ssI1242977138
(dp929
g872
I1
ssI470384116
(dp930
g872
I2
ssI44330614
(dp931
g872
I1
ssI850375682366595072
(dp932
g872
I1
ssI1540643960
(dp933
g872
I1
ssI2715780092
(dp934
g872
I1
sssI905127538925727747
(dp935
sI889559479376896004
(dp936
sI768928273812246533
(dp937
sI717968149837119488
(dp938
sI847177160725086209
(dp939
sI891664378579308554
(dp940
sI819666672630071298
(dp941
sI3341555373
(dp942
sI889220266009784321
(dp943
sI906947261434875907
(dp944
sI2510030868
(dp945
sI191529646
(dp946
sI109010968
(dp947
sI885927018067619844
(dp948
sI60231707
(dp949
sI787040422199750661
(dp950
sI363866141
(dp951
sI896437306579701765
(dp952
sI3298385953
(dp953
sI3346556962
(dp954
sI799519849529610240
(dp955
sI710119456534560769
(dp956
sI804037996551012358
(dp957
sI3387844647
(dp958
sI3163650396
(dp959
sI896611194588594176
(dp960
sI307818162
(dp961
sI322076719
(dp962
sI855512461872701442
(dp963
sI874029090164137984
(dp964
sI362119223
(dp965
sI4795336761
(dp966
sI2627455034
(dp967
sI1588881468
(dp968
sI346059786
(dp969
sI121024574
(dp970
sI751340422966960128
(dp971
sI876449158667829250
(dp972
sI869062997687316480
(dp973
sI3023074207
(dp974
sI834686861775880193
(dp975
sI1032583238
(dp976
sI897904801207529478
(dp977
sI2729287754
(dp978
sI2404128843
(dp979
sI855894956451483648
(dp980
sI3377690704
(dp981
sI754025577024221184
(dp982
sI860532597419651073
(dp983
sI1065926743
(dp984
sI1286322264
(dp985
sI24422489
(dp986
sI3164278875
(dp987
sI289299813
(dp988
sI725994526175858688
(dp989
sI708745320
(dp990
sI805461281629175808
(dp991
sI984522858
(dp992
sI2221930610
(dp993
sI258021491
(dp994
sI4243388536
(dp995
sI557949844
(dp996
sI1019390076
(dp997
sI1550733440
(dp998
sI830155375865368576
(dp999
sI431620231
(dp1000
sI3409499842
(dp1001
sI518391832
(dp1002
sI3349342355
(dp1003
sI2620911641
(dp1004
sI2892077217
(dp1005
sI759083082288861185
(dp1006
sI888817558643716096
(dp1007
sI902824091622703104
(dp1008
sI468338716
(dp1009
sI897028290476736512
(dp1010
sI3402524848
(dp1011
sI313536689
(dp1012
sI708266424205254656
(dp1013
sI4250466994
(dp1014
sI2516278799
(dp1015
sI1027313850
(dp1016
sI3388020767
(dp1017
sI2878585546
(dp1018
sI906987649046646784
(dp1019
sI785063001732833280
(dp1020
sI775423106999521282
(dp1021
sI2367912133
(dp1022
sI874586784281264128
(dp1023
sI713766379229458433
(dp1024
sI906908169863090176
(dp1025
sI1593998029
(dp1026
sI888871996779634688
(dp1027
sI758643857584189440
(dp1028
sI714468816437305344
(dp1029
sI3326599384
(dp1030
sI472000731
(dp1031
sI2645201120
(dp1032
sI3078224098
(dp1033
sI3065546986
(dp1034
sI2934927597
(dp1035
sI340308206
(dp1036
sI4440213743
(dp1037
sI2308708595
(dp1038
sI252332089
(dp1039
sI3253815544
(dp1040
sI746871699103223809
(dp1041
sI724844861002768384
(dp1042
sI864938904138469377
(dp1043
sI481952811
(dp1044
sI883426467551600640
(dp1045
sI4924308645
(dp1046
sI828436568914403328
(dp1047
I828436568914403328
(dp1048
g872
I11
sssI2330093832
(dp1049
sI29442313
(dp1050
sI3351124235
(dp1051
sI578449794
(dp1052
sI212573765
(dp1053
sI3749445677
(dp1054
sI2881186073
(dp1055
sI2598158618
(dp1056
sI2734266653
(dp1057
sI765691193154015232
(dp1058
sI3082533152
(dp1059
sI711972175528534017
(dp1060
sI2669580583
(dp1061
sI3309588777
(dp1062
sI961129436
(dp1063
sI3920802093
(dp1064
sI494237065
(dp1065
sI593682747
(dp1066
sI1327925564
(dp1067
sI354875711
(dp1068
sI782476241383350272
(dp1069
sI863814457344086016
(dp1070
sI906513803583553536
(dp1071
sI738090230616600576
(dp1072
sI2312722764
(dp1073
sI862347613454127104
(dp1074
sI2949966160
(dp1075
sI1478246737
(dp1076
sI3327037779
(dp1077
sI318607700
(dp1078
sI466880853
(dp1079
sI900286645001490433
(dp1080
sI482054488
(dp1081
sI790146116058746880
(dp1082
sI2935204191
(dp1083
sI984426848
(dp1084
sI269039972
(dp1085
sI807339629817004032
(dp1086
sI2867489511
(dp1087
sI4646222189
(dp1088
sI3231334461
(dp1089
sI791034076320952320
(dp1090
sI2515178217
(dp1091
sI901162103071019008
(dp1092
sI2563584379
(dp1093
sI1516054908
(dp1094
sI75960384
(dp1095
sI755465712706154496
(dp1096
sI1024559492
(dp1097
sI934977925
(dp1098
sI834765994711199744
(dp1099
sI118664959
(dp1100
sI853218161893814272
(dp1101
sI836298369949700098
(dp1102
sI616493066
(dp1103
sI119071123
(dp1104
sI299739540
(dp1105
sI290152854
(dp1106
sI3762086296
(dp1107
sI906225256792240128
(dp1108
sI2667908849
(dp1109
sI291656105
(dp1110
sI4104255916
(dp1111
sI843422518014894081
(dp1112
sI3291347915
(dp1113
sI711964407119499264
(dp1114
sI3351359925
(dp1115
sI1031510454
(dp1116
sI731080759
(dp1117
sI2664841658
(dp1118
sI110173599
(dp1119
sI769932383185436672
(dp1120
sI3062096321
(dp1121
I3062096321
(dp1122
g872
I1
sssI828689735577120770
(dp1123
sI2315444982
(dp1124
sI4122606023
(dp1125
sI755318547950206976
(dp1126
sI729793005847236608
(dp1127
sI368480642
(dp1128
sI906940670694363136
(dp1129
sI296331730
(dp1130
sI882246838472122368
(dp1131
sI446291651
(dp1132
sI504971736
(dp1133
sI118115748
(dp1134
I891384910921048064
(dp1135
g872
I6
ssI799519849529610240
(dp1136
g872
I6
ssI108394178
(dp1137
g872
I1
ssI22064251
(dp1138
g872
I1
ssI768928273812246533
(dp1139
g872
I2
ssI802392555807735808
(dp1140
g872
I6
ssI819666672630071298
(dp1141
g872
I1
ssI4104255916
(dp1142
g872
I2
ssI187099469
(dp1143
g872
I1
ssI3592950672
(dp1144
g872
I3
ssI60231707
(dp1145
g872
I1
ssI1019390076
(dp1146
g872
I1
ssI2213803262
(dp1147
g872
I1
sssI733170139
(dp1148
sI790207364309848064
(dp1149
sI519694757
(dp1150
sI839517734085996547
(dp1151
sI895989138444431361
(dp1152
sI420585955
(dp1153
sI2972662246
(dp1154
sI3027173874
(dp1155
sI264358387
(dp1156
sI2570865406
(dp1157
sI744800465683001346
(dp1158
sI3402572283
(dp1159
sI585767420
(dp1160
sI835952812433551364
(dp1161
sI785063349889499136
(dp1162
sI96863659
(dp1163
sI833693418815635456
(dp1164
sI906934017622245376
(dp1165
sI2490720780
(dp1166
sI762008078
(dp1167
sI101004717
(dp1168
sI256451091
(dp1169
sI442838446
(dp1170
sI269873241
(dp1171
sI2255438360
(dp1172
sI905773888226951169
(dp1173
sI887063820635713537
(dp1174
sI835212587738480641
(dp1175
sI315932422
(dp1176
sI886143734655713280
(dp1177
sI444195372
(dp1178
sI735069782186283008
(dp1179
sI2902641209
(dp1180
sI894576985581785088
(dp1181
sI2941033024
(dp1182
sI1605734977
(dp1183
sI778607459032236032
(dp1184
sI506382921
(dp1185
sI64418378
(dp1186
sI289016395
(dp1187
sI846657293563383808
(dp1188
sI1260509828
(dp1189
sI884104663221641216
(dp1190
sI1854414908
(dp1191
sI813347658836377601
(dp1192
sI312652379
(dp1193
sI1416032862
(dp1194
sI3325319596
(dp1195
sI314727009
(dp1196
sI239082087
(dp1197
sI402988831
(dp1198
sI755777853195714560
(dp1199
sI2933193323
(dp1200
sI1488960109
(dp1201
sI826547056873525248
(dp1202
sI414577263
(dp1203
sI832947903471767552
(dp1204
sI817239688423600128
(dp1205
sI2996588649
(dp1206
sI469604986
(dp1207
sI185131114
(dp1208
sI3065653887
(dp1209
sI957923970
(dp1210
sI43332228
(dp1211
sI906754562375241728
(dp1212
sI2256904580
(dp1213
sI4394433165
(dp1214
sI628415124
(dp1215
sI897421076149534721
(dp1216
sI880019981131542528
(dp1217
sI373811867
(dp1218
sI717779482682265600
(dp1219
sI23186079
(dp1220
I904859433469177856
(dp1221
g872
I2
ssI847177160725086209
(dp1222
g872
I1
ssI893584530048790530
(dp1223
g872
I6
ssI905127538925727747
(dp1224
g872
I2
ssI889559479376896004
(dp1225
g872
I4
ssI896437306579701765
(dp1226
g872
I7
ssI883027621600165888
(dp1227
g872
I8
ssI906977063449624577
(dp1228
g872
I1
ssI891664378579308554
(dp1229
g872
I1
ssI876449158667829250
(dp1230
g872
I2
ssI3341555373
(dp1231
g872
I1
ssI889220266009784321
(dp1232
g872
I3
ssI906947261434875907
(dp1233
g872
I3
ssI2510030868
(dp1234
g872
I1
ssI109010968
(dp1235
g872
I1
ssI885927018067619844
(dp1236
g872
I1
ssI787040422199750661
(dp1237
g872
I1
ssI363866141
(dp1238
g872
I1
ssI842129187557236741
(dp1239
g872
I1
ssI3298385953
(dp1240
g872
I1
ssI3346556962
(dp1241
g872
I2
ssI790207364309848064
(dp1242
g872
I1
ssI710119456534560769
(dp1243
g872
I1
ssI804037996551012358
(dp1244
g872
I1
ssI3387844647
(dp1245
g872
I2
ssI3163650396
(dp1246
g872
I3
ssI896611194588594176
(dp1247
g872
I1
ssI307818162
(dp1248
g872
I1
ssI322076719
(dp1249
g872
I1
ssI855512461872701442
(dp1250
g872
I1
ssI362119223
(dp1251
g872
I1
ssI4795336761
(dp1252
g872
I1
ssI2627455034
(dp1253
g872
I4
ssI1588881468
(dp1254
g872
I1
ssI346059786
(dp1255
g872
I1
ssI121024574
(dp1256
g872
I1
ssI751340422966960128
(dp1257
g872
I17
ssI869062997687316480
(dp1258
g872
I1
ssI835212587738480641
(dp1259
g872
I2
ssI1032583238
(dp1260
g872
I1
ssI897904801207529478
(dp1261
g872
I1
ssI2729287754
(dp1262
g872
I1
ssI2404128843
(dp1263
g872
I1
ssI855894956451483648
(dp1264
g872
I1
ssI3377690704
(dp1265
g872
I1
ssI754025577024221184
(dp1266
g872
I4
ssI1065926743
(dp1267
g872
I1
ssI1286322264
(dp1268
g872
I1
ssI24422489
(dp1269
g872
I1
ssI3164278875
(dp1270
g872
I1
ssI289299813
(dp1271
g872
I1
ssI717779482682265600
(dp1272
g872
I2
ssI708745320
(dp1273
g872
I1
ssI805461281629175808
(dp1274
g872
I2
ssI984522858
(dp1275
g872
I1
ssI2221930610
(dp1276
g872
I1
ssI258021491
(dp1277
g872
I1
ssI4243388536
(dp1278
g872
I9
ssI472096892
(dp1279
g872
I1
ssI1550733440
(dp1280
g872
I2
ssI830155375865368576
(dp1281
g872
I1
ssI431620231
(dp1282
g872
I1
ssI518391832
(dp1283
g872
I3
ssI3349342355
(dp1284
g872
I1
ssI2620911641
(dp1285
g872
I1
ssI2892077217
(dp1286
g872
I1
ssI759083082288861185
(dp1287
g872
I1
ssI888817558643716096
(dp1288
g872
I1
ssI468338716
(dp1289
g872
I1
ssI897028290476736512
(dp1290
g872
I1
ssI3402524848
(dp1291
g872
I9
ssI313536689
(dp1292
g872
I1
ssI708266424205254656
(dp1293
g872
I2
ssI4250466994
(dp1294
g872
I1
ssI2516278799
(dp1295
g872
I1
ssI1027313850
(dp1296
g872
I1
ssI3388020767
(dp1297
g872
I1
ssI2878585546
(dp1298
g872
I18
ssI1610244469
(dp1299
g872
I1
ssI785063001732833280
(dp1300
g872
I1
ssI775423106999521282
(dp1301
g872
I1
ssI2367912133
(dp1302
g872
I1
ssI874586784281264128
(dp1303
g872
I1
ssI906908169863090176
(dp1304
g872
I1
ssI1593998029
(dp1305
g872
I1
ssI888871996779634688
(dp1306
g872
I1
ssI758643857584189440
(dp1307
g872
I1
ssI3326599384
(dp1308
g872
I1
ssI472000731
(dp1309
g872
I1
ssI2645201120
(dp1310
g872
I2
ssI3078224098
(dp1311
g872
I1
ssI3065546986
(dp1312
g872
I1
ssI2934927597
(dp1313
g872
I1
ssI340308206
(dp1314
g872
I2
ssI4440213743
(dp1315
g872
I1
ssI2308708595
(dp1316
g872
I1
ssI3253815544
(dp1317
g872
I9
ssI746871699103223809
(dp1318
g872
I1
ssI724844861002768384
(dp1319
g872
I1
ssI864938904138469377
(dp1320
g872
I1
ssI481952811
(dp1321
g872
I1
ssI883426467551600640
(dp1322
g872
I2
ssI4924308645
(dp1323
g872
I1
ssI828436568914403328
(dp1324
g872
I12
ssI3351124235
(dp1325
g872
I1
ssI578449794
(dp1326
g872
I1
ssI3749445677
(dp1327
g872
I1
ssI2881186073
(dp1328
g872
I1
ssI2598158618
(dp1329
g872
I1
ssI2734266653
(dp1330
g872
I1
ssI765691193154015232
(dp1331
g872
I1
ssI3082533152
(dp1332
g872
I1
ssI711972175528534017
(dp1333
g872
I1
ssI2669580583
(dp1334
g872
I2
ssI3309588777
(dp1335
g872
I1
ssI961129436
(dp1336
g872
I1
ssI3920802093
(dp1337
g872
I1
ssI494237065
(dp1338
g872
I1
ssI1327925564
(dp1339
g872
I2
ssI897202350502416384
(dp1340
g872
I1
ssI782476241383350272
(dp1341
g872
I1
ssI906513803583553536
(dp1342
g872
I1
ssI738090230616600576
(dp1343
g872
I6
ssI2312722764
(dp1344
g872
I1
ssI862347613454127104
(dp1345
g872
I1
ssI2949966160
(dp1346
g872
I1
ssI1478246737
(dp1347
g872
I1
ssI3327037779
(dp1348
g872
I1
ssI318607700
(dp1349
g872
I1
ssI466880853
(dp1350
g872
I1
ssI900286645001490433
(dp1351
g872
I1
ssI482054488
(dp1352
g872
I1
ssI790146116058746880
(dp1353
g872
I1
ssI2935204191
(dp1354
g872
I1
ssI984426848
(dp1355
g872
I1
ssI269039972
(dp1356
g872
I1
ssI807339629817004032
(dp1357
g872
I1
ssI2867489511
(dp1358
g872
I1
ssI4646222189
(dp1359
g872
I1
ssI3231334461
(dp1360
g872
I1
ssI791034076320952320
(dp1361
g872
I2
ssI901162103071019008
(dp1362
g872
I2
ssI2563584379
(dp1363
g872
I1
ssI1516054908
(dp1364
g872
I1
ssI755465712706154496
(dp1365
g872
I1
ssI1024559492
(dp1366
g872
I1
ssI934977925
(dp1367
g872
I1
ssI834765994711199744
(dp1368
g872
I8
ssI118664959
(dp1369
g872
I1
ssI853218161893814272
(dp1370
g872
I1
ssI836298369949700098
(dp1371
g872
I1
ssI616493066
(dp1372
g872
I1
ssI119071123
(dp1373
g872
I2
ssI299739540
(dp1374
g872
I4
ssI290152854
(dp1375
g872
I2
ssI3762086296
(dp1376
g872
I1
ssI906225256792240128
(dp1377
g872
I1
ssI832864937269657600
(dp1378
g872
I1
ssI2667908849
(dp1379
g872
I1
ssI291656105
(dp1380
g872
I1
ssI3325319596
(dp1381
g872
I1
ssI843422518014894081
(dp1382
g872
I3
ssI3291347915
(dp1383
g872
I1
ssI711964407119499264
(dp1384
g872
I3
ssI3351359925
(dp1385
g872
I1
ssI1031510454
(dp1386
g872
I2
ssI817848020607922176
(dp1387
g872
I1
ssI803141974480027648
(dp1388
g872
I1
ssI3062096321
(dp1389
g872
I1
ssI828689735577120770
(dp1390
g872
I1
ssI2315444982
(dp1391
g872
I1
ssI4122606023
(dp1392
g872
I1
ssI755318547950206976
(dp1393
g872
I1
ssI729793005847236608
(dp1394
g872
I1
ssI906940670694363136
(dp1395
g872
I1
ssI296331730
(dp1396
g872
I1
ssI446291651
(dp1397
g872
I1
ssI504971736
(dp1398
g872
I1
ssI3018994137
(dp1399
g872
I1
ssI733170139
(dp1400
g872
I1
ssI858901746101473281
(dp1401
g872
I1
ssI519694757
(dp1402
g872
I1
ssI895989138444431361
(dp1403
g872
I1
ssI420585955
(dp1404
g872
I1
ssI2972662246
(dp1405
g872
I1
ssI832947903471767552
(dp1406
g872
I1
ssI3027173874
(dp1407
g872
I1
ssI264358387
(dp1408
g872
I1
ssI2570865406
(dp1409
g872
I2
ssI744800465683001346
(dp1410
g872
I1
ssI3402572283
(dp1411
g872
I1
ssI585767420
(dp1412
g872
I1
ssI835952812433551364
(dp1413
g872
I1
ssI784696235882151936
(dp1414
g872
I4
ssI96863659
(dp1415
g872
I1
ssI833693418815635456
(dp1416
g872
I1
ssI906934017622245376
(dp1417
g872
I1
ssI762008078
(dp1418
g872
I1
ssI101004717
(dp1419
g872
I1
ssI256451091
(dp1420
g872
I2
ssI442838446
(dp1421
g872
I3
ssI269873241
(dp1422
g872
I1
ssI2255438360
(dp1423
g872
I1
ssI905773888226951169
(dp1424
g872
I3
ssI887063820635713537
(dp1425
g872
I1
ssI834686861775880193
(dp1426
g872
I1
ssI315932422
(dp1427
g872
I1
ssI886143734655713280
(dp1428
g872
I1
ssI444195372
(dp1429
g872
I1
ssI894576985581785088
(dp1430
g872
I1
ssI2941033024
(dp1431
g872
I1
ssI890279714375573505
(dp1432
g872
I1
ssI778607459032236032
(dp1433
g872
I1
ssI506382921
(dp1434
g872
I1
ssI846657293563383808
(dp1435
g872
I1
ssI1617304747
(dp1436
g872
I1
ssI884104663221641216
(dp1437
g872
I1
ssI1854414908
(dp1438
g872
I1
ssI312652379
(dp1439
g872
I7
ssI1416032862
(dp1440
g872
I1
ssI314727009
(dp1441
g872
I1
ssI239082087
(dp1442
g872
I4
ssI402988831
(dp1443
g872
I1
ssI769932383185436672
(dp1444
g872
I2
ssI2933193323
(dp1445
g872
I1
ssI1488960109
(dp1446
g872
I1
ssI826547056873525248
(dp1447
g872
I1
ssI414577263
(dp1448
g872
I5
ssI906754562375241728
(dp1449
g872
I2
ssI817239688423600128
(dp1450
g872
I1
ssI2996588649
(dp1451
g872
I1
ssI469604986
(dp1452
g872
I1
ssI185131114
(dp1453
g872
I1
ssI3065653887
(dp1454
g872
I1
ssI957923970
(dp1455
g872
I1
ssI43332228
(dp1456
g872
I1
ssI735069782186283008
(dp1457
g872
I1
ssI2256904580
(dp1458
g872
I1
ssI4394433165
(dp1459
g872
I1
ssI628415124
(dp1460
g872
I1
ssI897421076149534721
(dp1461
g872
I1
ssI880019981131542528
(dp1462
g872
I2
ssI373811867
(dp1463
g872
I1
ssI4841550496
(dp1464
g872
I1
ssI2202862243
(dp1465
g872
I1
ssI871354539072507905
(dp1466
g872
I1
ssI2845350565
(dp1467
g872
I1
ssI868166310
(dp1468
g872
I1
ssI830855904157376512
(dp1469
g872
I1
ssI2214671021
(dp1470
g872
I1
ssI369554094
(dp1471
g872
I6
ssI741521214808727552
(dp1472
g872
I1
ssI303329971
(dp1473
g872
I1
ssI1086338846
(dp1474
g872
I16
ssI840656785669275648
(dp1475
g872
I1
ssI904331546487869440
(dp1476
g872
I1
ssI759338709057691648
(dp1477
g872
I2
ssI3374635713
(dp1478
g872
I1
ssI1380061890
(dp1479
g872
I2
ssI3327869638
(dp1480
g872
I2
ssI876161990397394944
(dp1481
g872
I1
ssI733374201210490881
(dp1482
g872
I1
ssI2682043082
(dp1483
g872
I1
ssI883523294737125376
(dp1484
g872
I3
ssI902592004340801537
(dp1485
g872
I1
ssI3038992504
(dp1486
g872
I2
ssI2845516498
(dp1487
g872
I1
ssI2699809498
(dp1488
g872
I1
ssI3438267472
(dp1489
g872
I1
ssI475165406
(dp1490
g872
I1
ssI1579244256
(dp1491
g872
I2
ssI3248015945
(dp1492
g872
I1
ssI711636070874685440
(dp1493
g872
I2
ssI2515178217
(dp1494
g872
I1
ssI435770093
(dp1495
g872
I1
ssI778587580577226752
(dp1496
g872
I1
ssI879648680046993412
(dp1497
g872
I1
ssI621093619
(dp1498
g872
I1
ssI556139252
(dp1499
g872
I1
ssI537303798
(dp1500
g872
I1
ssI2746491639
(dp1501
g872
I1
ssI4149056254
(dp1502
g872
I1
ssI789514452009967616
(dp1503
g872
I2
ssI1106420484
(dp1504
g872
I1
ssI766705328142573568
(dp1505
g872
I2
ssI898253247986749441
(dp1506
g872
I2
ssI327535370
(dp1507
g872
I2
ssI1330950924
(dp1508
g872
I1
ssI3374729997
(dp1509
g872
I4
ssI2706432783
(dp1510
g872
I1
ssI1212889872
(dp1511
g872
I1
ssI267158659
(dp1512
g872
I2
ssI1215238932
(dp1513
g872
I1
ssI799650628477874176
(dp1514
g872
I1
ssI794141441169702912
(dp1515
g872
I1
ssI592071715
(dp1516
g872
I1
ssI823501316764958720
(dp1517
g872
I1
ssI333589281
(dp1518
g872
I1
ssI20912932
(dp1519
g872
I1
ssI773860142
(dp1520
g872
I1
ssI859865121660784640
(dp1521
g872
I1
ssI903188160640897025
(dp1522
g872
I1
ssI831271008271212545
(dp1523
g872
I2
ssI1566542654
(dp1524
g872
I1
ssI2472215359
(dp1525
g872
I1
ssI270322497
(dp1526
g872
I2
ssI875039141116993538
(dp1527
g872
I1
ssI896274914025537536
(dp1528
g872
I1
ssI902634861013454850
(dp1529
g872
I1
ssI375624524
(dp1530
g872
I2
ssI90428242
(dp1531
g872
I2
ssI729979235025211392
(dp1532
g872
I1
ssI1680694100
(dp1533
g872
I1
ssI941556013
(dp1534
g872
I1
ssI886238298791915520
(dp1535
g872
I2
ssI47039322
(dp1536
g872
I1
ssI764205371699425280
(dp1537
g872
I1
ssI2405118814
(dp1538
g872
I1
ssI885075773736050691
(dp1539
g872
I3
ssI2438644579
(dp1540
g872
I1
ssI1568074596
(dp1541
g872
I1
ssI1630362470
(dp1542
g872
I1
ssI2706778985
(dp1543
g872
I4
ssI506229614
(dp1544
g872
I1
ssI3049888623
(dp1545
g872
I1
ssI3305257840
(dp1546
g872
I1
ssI2755341170
(dp1547
g872
I1
ssI881830838081642500
(dp1548
g872
I1
ssI392870784
(dp1549
g872
I1
ssI3050517378
(dp1550
g872
I1
ssI976180099
(dp1551
g872
I1
ssI758196265243013120
(dp1552
g872
I1
ssI353079105
(dp1553
g872
I2
ssI317757634
(dp1554
g872
I1
ssI1593715597
(dp1555
g872
I1
ssI1617546126
(dp1556
g872
I1
ssI2325496723
(dp1557
g872
I1
ssI2884639636
(dp1558
g872
I3
ssI310449047
(dp1559
g872
I1
ssI709612440
(dp1560
g872
I1
ssI832618154232733701
(dp1561
g872
I1
ssI897642935747039234
(dp1562
g872
I3
ssI317455264
(dp1563
g872
I2
ssI2658661872
(dp1564
g872
I1
ssI847821912365510660
(dp1565
g872
I1
ssI903617507776491521
(dp1566
g872
I1
ssI906053382410051584
(dp1567
g872
I1
ssI223189930
(dp1568
g872
I1
ssI897148821444198400
(dp1569
g872
I1
ssI3435951377
(dp1570
g872
I1
ssI96871343
(dp1571
g872
I1
ssI2958271408
(dp1572
g872
I1
ssI543310769
(dp1573
g872
I1
ssI2203141278
(dp1574
g872
I1
ssI3346410424
(dp1575
g872
I1
ssI3160896441
(dp1576
g872
I5
ssI891339320078028800
(dp1577
g872
I2
ssI887356330129985536
(dp1578
g872
I1
ssI2999466945
(dp1579
g872
I4
ssI790684456713613314
(dp1580
g872
I1
ssI323349444
(dp1581
g872
I1
ssI174615828
(dp1582
g872
I1
ssI902824091622703104
(dp1583
g872
I3
ssI3794041335
(dp1584
g872
I1
ssI2336199629
(dp1585
g872
I1
ssI712341891547840512
(dp1586
g872
I2
ssI906967396115783680
(dp1587
g872
I1
ssI246287318
(dp1588
g872
I1
ssI278584484
(dp1589
g872
I1
ssI855890197795524609
(dp1590
g872
I3
ssI897990442981240832
(dp1591
g872
I1
ssI177256613
(dp1592
g872
I1
ssI370371553
(dp1593
g872
I5
ssI4428286948
(dp1594
g872
I2
ssI960775141
(dp1595
g872
I1
ssI903694918652219393
(dp1596
g872
I1
ssI3302105596
(dp1597
g872
I1
ssI944341994
(dp1598
g872
I1
ssI877692358254612480
(dp1599
g872
I1
ssI2697587695
(dp1600
g872
I1
ssI707011235217285120
(dp1601
g872
I4
ssI897112711041089536
(dp1602
g872
I1
ssI2909333110
(dp1603
g872
I1
ssI2308871678
(dp1604
g872
I1
ssI4906376182
(dp1605
g872
I1
ssI3247942647
(dp1606
g872
I1
ssI831238665531715588
(dp1607
g872
I1
ssI453817343
(dp1608
g872
I1
ssI306436098
(dp1609
g872
I1
ssI3035341827
(dp1610
g872
I1
ssI2805619716
(dp1611
g872
I1
ssI785063349889499136
(dp1612
g872
I2
ssI184419338
(dp1613
g872
I1
ssI820229634
(dp1614
g872
I1
ssI334365711
(dp1615
g872
I1
ssI106132499
(dp1616
g872
I1
ssI2268005400
(dp1617
g872
I2
ssI900456611860410373
(dp1618
g872
I1
ssI4319214621
(dp1619
g872
I1
ssI2643381281
(dp1620
g872
I1
ssI494998562
(dp1621
g872
I1
ssI877237559306407936
(dp1622
g872
I2
ssI813347658836377601
(dp1623
g872
I2
ssI2751194152
(dp1624
g872
I1
ssI2389371947
(dp1625
g872
I1
ssI2931092526
(dp1626
g872
I1
ssI1279827002
(dp1627
g872
I2
ssI902593654841376770
(dp1628
g872
I1
ssI841186217198784512
(dp1629
g872
I1
ssI899260812275089408
(dp1630
g872
I1
ssI366262114
(dp1631
g872
I1
ssI2608010318
(dp1632
g872
I1
ssI886671524668858368
(dp1633
g872
I1
ssI2361401528
(dp1634
g872
I1
ssI868136197163556864
(dp1635
g872
I1
ssI880590468320571393
(dp1636
g872
I1
ssI755777853195714560
(dp1637
g872
I1
ssI815976846521143296
(dp1638
g872
I1
ssI1493820511
(dp1639
g872
I1
ssI270418963
(dp1640
g872
I1
ssI3324421217
(dp1641
g872
I1
ssI936604771
(dp1642
g872
I1
ssI306263143
(dp1643
g872
I1
ssI1890679914
(dp1644
g872
I2
ssI825488766748020736
(dp1645
g872
I1
ssI2273055855
(dp1646
g872
I1
ssI905793705369624577
(dp1647
g872
I2
ssI3710757395
(dp1648
g872
I1
ssI784477688979451904
(dp1649
g872
I1
ssI3291460736
(dp1650
g872
I1
ssI169270401
(dp1651
g872
I1
ssI894526659101155328
(dp1652
g872
I1
ssI906987649046646784
(dp1653
g872
I1
ssI845627225516969984
(dp1654
g872
I1
ssI156202119
(dp1655
g872
I1
ssI897681766290509825
(dp1656
g872
I1
ssI2638257292
(dp1657
g872
I3
ssI991709378
(dp1658
g872
I1
ssI1295719572
(dp1659
g872
I2
ssI870757237094051840
(dp1660
g872
I1
ssI2710582428
(dp1661
g872
I1
ssI759571157448331264
(dp1662
g872
I1
ssI928199839
(dp1663
g872
I1
ssI743064432
(dp1664
g872
I1
ssI896697378262192129
(dp1665
g872
I14
ssI233694406
(dp1666
g872
I1
ssI3436936359
(dp1667
g872
I1
ssI4039894185
(dp1668
g872
I1
ssI906983148193546240
(dp1669
g872
I1
ssI4189297841
(dp1670
g872
I1
ssI83705010
(dp1671
g872
I1
ssI1047989431
(dp1672
g872
I1
ssI884122792026927104
(dp1673
g872
I1
ssI394284461
(dp1674
g872
I1
ssI252529850
(dp1675
g872
I2
ssI3116389565
(dp1676
g872
I1
ssI1487393983
(dp1677
g872
I1
ssI582669510
(dp1678
g872
I1
ssI1629459656
(dp1679
g872
I2
ssI859532256829997056
(dp1680
g872
I1
ssI298040523
(dp1681
g872
I4
ssI906969480550592518
(dp1682
g872
I1
ssI547931350
(dp1683
g872
I1
ssI344012417
(dp1684
g872
I1
ssI902102511854727168
(dp1685
g872
I5
ssI2437086428
(dp1686
g872
I1
ssI291069152
(dp1687
g872
I1
ssI791707249324490752
(dp1688
g872
I1
ssI207213805
(dp1689
g872
I1
ssI421198573
(dp1690
g872
I1
ssI2466520308
(dp1691
g872
I1
ssI787021894331592704
(dp1692
g872
I1
ssI873958369756930048
(dp1693
g872
I4
ssI1429056762
(dp1694
g872
I2
ssI715329805433094146
(dp1695
g872
I1
ssI1596239100
(dp1696
g872
I2
ssI2704506110
(dp1697
g872
I1
ssI3387381779
(dp1698
g872
I1
ssI2478685441
(dp1699
g872
I1
ssI879049231650234368
(dp1700
g872
I3
ssI396695111
(dp1701
g872
I1
ssI893825822699728896
(dp1702
g872
I2
ssI117763342
(dp1703
g872
I1
ssI843441339840843776
(dp1704
g872
I1
ssI3677748496
(dp1705
g872
I1
ssI4242265361
(dp1706
g872
I1
ssI1307499794
(dp1707
g872
I1
ssI1125973268
(dp1708
g872
I4
ssI3794943256
(dp1709
g872
I1
ssI906968274994434049
(dp1710
g872
I2
ssI3108605957
(dp1711
g872
I3
ssI725994526175858688
(dp1712
g872
I1
ssI3401781125
(dp1713
g872
I1
ssI872841928555077633
(dp1714
g872
I2
ssI2201793829
(dp1715
g872
I1
ssI809304613576908800
(dp1716
g872
I1
ssI869261554277113858
(dp1717
g872
I1
ssI388771113
(dp1718
g872
I1
ssI835623556503449600
(dp1719
g872
I1
ssI2493107502
(dp1720
g872
I1
ssI354875711
(dp1721
g872
I1
ssI885797795780845569
(dp1722
g872
I1
ssI902654044992409606
(dp1723
g872
I2
ssI847180687077785602
(dp1724
g872
I1
ssI3701744957
(dp1725
g872
I1
ssI1657224510
(dp1726
g872
I3
ssI713366847
(dp1727
g872
I1
ssI869150312401182722
(dp1728
g872
I1
ssI773956253882146816
(dp1729
g872
I1
ssI880460393457569792
(dp1730
g872
I2
ssI768577061560672256
(dp1731
g872
I1
ssI868121908151296000
(dp1732
g872
I1
ssI2415011159
(dp1733
g872
I1
ssI347753817
(dp1734
g872
I3
ssI778284443710676992
(dp1735
g872
I1
ssI899289780676165632
(dp1736
g872
I1
ssI829046866675372032
(dp1737
g872
I1
ssI3415590238
(dp1738
g872
I1
ssI417434981
(dp1739
g872
I1
ssI880781226709331968
(dp1740
g872
I3
ssI461284712
(dp1741
g872
I1
ssI274505066
(dp1742
g872
I2
ssI802843363036766208
(dp1743
g872
I1
ssI706907668171124736
(dp1744
g872
I2
ssI899750108253868032
(dp1745
g872
I1
ssI557949844
(dp1746
g872
I1
ssI186938747
(dp1747
g872
I1
ssI4873068778
(dp1748
g872
I2
ssI876191141749825540
(dp1749
g872
I1
ssI894192879014469632
(dp1750
g872
I1
ssI892467846567079936
(dp1751
g872
I1
ssI1605734977
(dp1752
g872
I1
ssI346203529
(dp1753
g872
I1
ssI269503883
(dp1754
g872
I1
ssI885812941802659841
(dp1755
g872
I1
ssI155491224
(dp1756
g872
I1
ssI3292253586
(dp1757
g872
I1
ssI886146781331025920
(dp1758
g872
I2
ssI891906900903813121
(dp1759
g872
I1
ssI2179212700
(dp1760
g872
I2
ssI717968149837119488
(dp1761
g872
I1
ssI721800608
(dp1762
g872
I1
ssI3014421922
(dp1763
g872
I1
ssI169131427
(dp1764
g872
I1
ssI885626317294776321
(dp1765
g872
I1
ssI2198091174
(dp1766
g872
I1
ssI2243227047
(dp1767
g872
I1
ssI303959465
(dp1768
g872
I1
ssI782322276675059712
(dp1769
g872
I1
ssI770704248954912768
(dp1770
g872
I1
ssI4704572845
(dp1771
g872
I1
ssI768400634697613312
(dp1772
g872
I2
ssI404037047
(dp1773
g872
I6
ssI734806553795153921
(dp1774
g872
I1
ssI3094343105
(dp1775
g872
I1
ssI893128736320761858
(dp1776
g872
I1
ssI2276625427
(dp1777
g872
I1
ssI2939133381
(dp1778
g872
I1
ssI296936905
(dp1779
g872
I1
ssI3994928591
(dp1780
g872
I1
ssI849678537372180480
(dp1781
g872
I1
ssI2288674262
(dp1782
g872
I2
ssI904976962392870912
(dp1783
g872
I1
ssI497171364
(dp1784
g872
I1
ssI3389562106
(dp1785
g872
I1
ssI764433861472288768
(dp1786
g872
I1
ssI819921194036166656
(dp1787
g872
I2
ssI4284921317
(dp1788
g872
I1
ssI1704156648
(dp1789
g872
I1
ssI755635394235031553
(dp1790
g872
I2
ssI3747716595
(dp1791
g872
I1
ssI370726393
(dp1792
g872
I1
ssI871055690852446212
(dp1793
g872
I1
ssI1080641024
(dp1794
g872
I1
ssI635000322
(dp1795
g872
I1
ssI3321867779
(dp1796
g872
I2
ssI869745301531357185
(dp1797
g872
I1
ssI2789150213
(dp1798
g872
I1
ssI2751819270
(dp1799
g872
I3
ssI3396189441
(dp1800
g872
I1
ssI2160721417
(dp1801
g872
I1
ssI3091678733
(dp1802
g872
I1
ssI2811354639
(dp1803
g872
I1
ssI3051961874
(dp1804
g872
I1
ssI337612309
(dp1805
g872
I4
ssI340821526
(dp1806
g872
I1
ssI906979604111478784
(dp1807
g872
I1
ssI889483509399683072
(dp1808
g872
I1
ssI195051554
(dp1809
g872
I1
ssI100273699
(dp1810
g872
I1
ssI844519966930092033
(dp1811
g872
I1
ssI900906077675499520
(dp1812
g872
I1
ssI1265587753
(dp1813
g872
I1
ssI905104955182383104
(dp1814
g872
I2
ssI2302930476
(dp1815
g872
I1
ssI2427747889
(dp1816
g872
I5
ssI3131573811
(dp1817
g872
I1
ssI884105932304678913
(dp1818
g872
I2
ssI2396616793
(dp1819
g872
I1
ssI713724139081744384
(dp1820
g872
I1
ssI756976820625481728
(dp1821
g872
I2
ssI363820603
(dp1822
g872
I1
ssI803225918340734976
(dp1823
g872
I3
ssI1141659205
(dp1824
g872
I1
ssI832725569066278912
(dp1825
g872
I1
ssI2472670793
(dp1826
g872
I1
ssI1160189515
(dp1827
g872
I1
ssI70377037
(dp1828
g872
I1
ssI821296724253798400
(dp1829
g872
I1
ssI885846391414771712
(dp1830
g872
I1
ssI107451662
(dp1831
g872
I1
ssI793516044816093184
(dp1832
g872
I1
ssI3208724061
(dp1833
g872
I2
ssI474127968
(dp1834
g872
I1
ssI704310298841370624
(dp1835
g872
I2
ssI889609988200706048
(dp1836
g872
I1
ssI836178363995815936
(dp1837
g872
I1
ssI2727274091
(dp1838
g872
I1
ssI232799854
(dp1839
g872
I4
ssI743452810625294336
(dp1840
g872
I1
ssI543391651
(dp1841
g872
I1
ssI815275569046814721
(dp1842
g872
I1
ssI3341999734
(dp1843
g872
I4
ssI3213291129
(dp1844
g872
I1
ssI1180221054
(dp1845
g872
I1
ssI848116675731959810
(dp1846
g872
I1
ssI888048028342472704
(dp1847
g872
I2
ssI2250880280
(dp1848
g872
I1
ssI906917960710868992
(dp1849
g872
I6
ssI2918080149
(dp1850
g872
I1
ssI906484226123591680
(dp1851
g872
I1
ssI4144438935
(dp1852
g872
I1
ssI333962904
(dp1853
g872
I1
ssI299812510
(dp1854
g872
I1
ssI1077460640
(dp1855
g872
I2
ssI906865813969358849
(dp1856
g872
I1
ssI2328307368
(dp1857
g872
I3
ssI2584108714
(dp1858
g872
I1
ssI2961088173
(dp1859
g872
I7
ssI754751925652971521
(dp1860
g872
I1
ssI217120434
(dp1861
g872
I6
ssI1565660852
(dp1862
g872
I3
ssI1042540220
(dp1863
g872
I1
ssI515600063
(dp1864
g872
I1
ssI1389014720
(dp1865
g872
I2
ssI807593127120871424
(dp1866
g872
I1
ssI2263815875
(dp1867
g872
I1
ssI1609965253
(dp1868
g872
I1
ssI4806784713
(dp1869
g872
I1
ssI379683447
(dp1870
g872
I2
ssI857620141118509056
(dp1871
g872
I1
ssI861460630850740224
(dp1872
g872
I1
ssI893923775082901505
(dp1873
g872
I1
ssI2589990614
(dp1874
g872
I1
ssI802084714706325505
(dp1875
g872
I1
ssI58738398
(dp1876
g872
I1
ssI1228494560
(dp1877
g872
I1
ssI357670627
(dp1878
g872
I3
ssI1271905574
(dp1879
g872
I1
ssI322125543
(dp1880
g872
I1
ssI868204397779668993
(dp1881
g872
I1
ssI3845988077
(dp1882
g872
I1
ssI821031326824407040
(dp1883
g872
I1
ssI1298695921
(dp1884
g872
I1
ssI2778365682
(dp1885
g872
I1
ssI2389647093
(dp1886
g872
I4
ssI448077560
(dp1887
g872
I1
ssI969096954
(dp1888
g872
I1
ssI1861840638
(dp1889
g872
I1
ssI2343610111
(dp1890
g872
I1
ssI905163320046608384
(dp1891
g872
I1
ssI613385174
(dp1892
g872
I1
ssI903883595458207744
(dp1893
g872
I1
ssI885742477461921792
(dp1894
g872
I4
ssI599536004
(dp1895
g872
I1
ssI2751797003
(dp1896
g872
I2
ssI2273091342
(dp1897
g872
I1
ssI128591631
(dp1898
g872
I1
ssI906798942775586817
(dp1899
g872
I1
ssI114431764
(dp1900
g872
I1
ssI4319160087
(dp1901
g872
I1
ssI856403737
(dp1902
g872
I1
ssI230268702
(dp1903
g872
I5
ssI336977695
(dp1904
g872
I1
ssI2182231840
(dp1905
g872
I2
ssI905089535847096321
(dp1906
g872
I1
ssI905531757730115584
(dp1907
g872
I4
ssI3329195313
(dp1908
g872
I1
ssI906972512650776577
(dp1909
g872
I3
ssI905730113450508288
(dp1910
g872
I1
ssI1267349293
(dp1911
g872
I1
ssI2724583215
(dp1912
g872
I1
ssI765003572
(dp1913
g872
I1
ssI1219841851
(dp1914
g872
I1
ssI2387380028
(dp1915
g872
I1
ssI892342742025736192
(dp1916
g872
I1
ssI738408398300012544
(dp1917
g872
I1
ssI2848687937
(dp1918
g872
I3
ssI906948141055926274
(dp1919
g872
I1
ssI2959961925
(dp1920
g872
I1
ssI2265673543
(dp1921
g872
I1
ssI880813214061166592
(dp1922
g872
I6
ssI3300798283
(dp1923
g872
I1
ssI875484977164689408
(dp1924
g872
I1
ssI528296539
(dp1925
g872
I1
ssI2475845465
(dp1926
g872
I1
ssI827053288499580928
(dp1927
g872
I1
ssI3374350173
(dp1928
g872
I2
ssI2223760357
(dp1929
g872
I18
ssI114204514
(dp1930
g872
I1
ssI908130157
(dp1931
g872
I3
ssI906422811195035648
(dp1932
g872
I1
ssI810446985920651264
(dp1933
g872
I2
ssI853631042749698053
(dp1934
g872
I1
ssI753290592847851520
(dp1935
g872
I1
ssI2873749766
(dp1936
g872
I1
ssI808559753794383872
(dp1937
g872
I2
ssI823854735182753792
(dp1938
g872
I2
ssI1595481985
(dp1939
g872
I1
ssI3004735362
(dp1940
g872
I1
ssI1205575555
(dp1941
g872
I2
ssI896380708465373185
(dp1942
g872
I1
ssI737023638
(dp1943
g872
I2
ssI809878332334600192
(dp1944
g872
I1
ssI2617710473
(dp1945
g872
I1
ssI212719501
(dp1946
g872
I1
ssI1519617937
(dp1947
g872
I1
ssI892122604898840576
(dp1948
g872
I1
ssI543336346
(dp1949
g872
I1
ssI900859175030464513
(dp1950
g872
I1
ssI2968602526
(dp1951
g872
I1
ssI1636335715
(dp1952
g872
I1
ssI721723193619312641
(dp1953
g872
I1
ssI3092416421
(dp1954
g872
I2
ssI901607985641914368
(dp1955
g872
I1
ssI804959292424077312
(dp1956
g872
I1
ssI705650612
(dp1957
g872
I1
ssI860415357865140225
(dp1958
g872
I1
ssI183166915
(dp1959
g872
I2
ssI4075970055
(dp1960
g872
I1
ssI4515716422
(dp1961
g872
I1
ssI861577506075365376
(dp1962
g872
I1
ssI321298384
(dp1963
g872
I1
ssI3695245517
(dp1964
g872
I1
ssI3036297891
(dp1965
g872
I1
ssI784407165146656768
(dp1966
g872
I1
ssI2729445333
(dp1967
g872
I2
ssI3522000869
(dp1968
g872
I1
ssI899036797048696832
(dp1969
g872
I1
ssI232513512
(dp1970
g872
I1
ssI863814457344086016
(dp1971
g872
I1
ssI838762132003045376
(dp1972
g872
I1
ssI706992278003392512
(dp1973
g872
I1
ssI1622892535
(dp1974
g872
I1
ssI2325680120
(dp1975
g872
I1
ssI801785410238214148
(dp1976
g872
I1
sssI4841550496
(dp1977
sI2202862243
(dp1978
sI898253247986749441
(dp1979
sI2845350565
(dp1980
sI868166310
(dp1981
sI830855904157376512
(dp1982
sI784696235882151936
(dp1983
sI2214671021
(dp1984
sI369554094
(dp1985
sI741521214808727552
(dp1986
sI303329971
(dp1987
sI1086338846
(dp1988
sI893128736320761858
(dp1989
sI840656785669275648
(dp1990
sI904331546487869440
(dp1991
sI759338709057691648
(dp1992
sI3374635713
(dp1993
sI1380061890
(dp1994
sI3327869638
(dp1995
sI764433861472288768
(dp1996
sI733374201210490881
(dp1997
sI2682043082
(dp1998
sI883523294737125376
(dp1999
sI902592004340801537
(dp2000
sI3038992504
(dp2001
sI2845516498
(dp2002
sI20912932
(dp2003
sI2699809498
(dp2004
I4839859503
(dp2005
g872
I2
sssI3438267472
(dp2006
sI475165406
(dp2007
sI1579244256
(dp2008
sI858901746101473281
(dp2009
sI101057250
(dp2010
sI3248015945
(dp2011
sI711636070874685440
(dp2012
sI803141974480027648
(dp2013
sI435770093
(dp2014
sI778587580577226752
(dp2015
sI19485425
(dp2016
sI879648680046993412
(dp2017
sI621093619
(dp2018
sI556139252
(dp2019
sI537303798
(dp2020
sI2746491639
(dp2021
sI4149056254
(dp2022
sI789514452009967616
(dp2023
sI1106420484
(dp2024
sI766705328142573568
(dp2025
sI871354539072507905
(dp2026
sI327535370
(dp2027
sI1330950924
(dp2028
sI3374729997
(dp2029
sI2706432783
(dp2030
sI1212889872
(dp2031
sI267158659
(dp2032
sI1215238932
(dp2033
sI799650628477874176
(dp2034
sI3018994137
(dp2035
sI794141441169702912
(dp2036
sI592071715
(dp2037
sI823501316764958720
(dp2038
sI333589281
(dp2039
sI885812941802659841
(dp2040
sI773860142
(dp2041
sI235830749
(dp2042
sI859865121660784640
(dp2043
sI903188160640897025
(dp2044
sI3007144764
(dp2045
sI831271008271212545
(dp2046
sI1566542654
(dp2047
sI2472215359
(dp2048
sI1490979648
(dp2049
sI270322497
(dp2050
sI810446985920651264
(dp2051
sI883367303081074688
(dp2052
sI896274914025537536
(dp2053
sI902634861013454850
(dp2054
sI375624524
(dp2055
sI90428242
(dp2056
sI729979235025211392
(dp2057
sI1680694100
(dp2058
sI941556013
(dp2059
sI886238298791915520
(dp2060
sI47039322
(dp2061
sI809878332334600192
(dp2062
sI2405118814
(dp2063
sI885075773736050691
(dp2064
sI2438644579
(dp2065
sI1568074596
(dp2066
sI1630362470
(dp2067
sI2706778985
(dp2068
sI506229614
(dp2069
sI3049888623
(dp2070
sI3305257840
(dp2071
sI2755341170
(dp2072
sI761294337317728256
(dp2073
sI881830838081642500
(dp2074
sI392870784
(dp2075
sI3050517378
(dp2076
sI976180099
(dp2077
sI758196265243013120
(dp2078
sI353079105
(dp2079
sI317757634
(dp2080
sI1593715597
(dp2081
sI1617546126
(dp2082
sI3592950672
(dp2083
sI472096892
(dp2084
sI2325496723
(dp2085
sI2884639636
(dp2086
sI310449047
(dp2087
sI709612440
(dp2088
sI842129187557236741
(dp2089
sI44330614
(dp2090
sI897642935747039234
(dp2091
sI317455264
(dp2092
sI2658661872
(dp2093
sI847821912365510660
(dp2094
sI903617507776491521
(dp2095
sI906053382410051584
(dp2096
sI223189930
(dp2097
sI897148821444198400
(dp2098
sI3435951377
(dp2099
sI96871343
(dp2100
sI2958271408
(dp2101
sI543310769
(dp2102
sI2249120692
(dp2103
sI2203141278
(dp2104
sI3346410424
(dp2105
sI3160896441
(dp2106
sI891339320078028800
(dp2107
sI887356330129985536
(dp2108
sI2999466945
(dp2109
sI790684456713613314
(dp2110
sI323349444
(dp2111
sI174615828
(dp2112
sI832864937269657600
(dp2113
sI3794041335
(dp2114
sI2336199629
(dp2115
sI712341891547840512
(dp2116
sI906967396115783680
(dp2117
sI246287318
(dp2118
sI278584484
(dp2119
sI855890197795524609
(dp2120
sI897990442981240832
(dp2121
sI177256613
(dp2122
sI370371553
(dp2123
sI4428286948
(dp2124
sI960775141
(dp2125
sI903694918652219393
(dp2126
sI3302105596
(dp2127
sI944341994
(dp2128
sI877692358254612480
(dp2129
sI2697587695
(dp2130
sI707011235217285120
(dp2131
sI897112711041089536
(dp2132
sI2909333110
(dp2133
sI2308871678
(dp2134
sI4906376182
(dp2135
sI3247942647
(dp2136
sI2715780092
(dp2137
sI831238665531715588
(dp2138
sI453817343
(dp2139
sI306436098
(dp2140
sI44094466
(dp2141
sI3035341827
(dp2142
sI2805619716
(dp2143
sI767995186605686784
(dp2144
sI184419338
(dp2145
sI820229634
(dp2146
sI334365711
(dp2147
sI711863192088125440
(dp2148
sI106132499
(dp2149
sI2268005400
(dp2150
sI900456611860410373
(dp2151
sI4319214621
(dp2152
sI2643381281
(dp2153
sI494998562
(dp2154
sI877237559306407936
(dp2155
sI906977063449624577
(dp2156
sI2751194152
(dp2157
sI2389371947
(dp2158
sI2931092526
(dp2159
sI1279827002
(dp2160
sI902593654841376770
(dp2161
sI841186217198784512
(dp2162
sI899260812275089408
(dp2163
sI114204514
(dp2164
sI2608010318
(dp2165
sI886671524668858368
(dp2166
sI2361401528
(dp2167
sI879049231650234368
(dp2168
sI880590468320571393
(dp2169
sI2811354639
(dp2170
sI815976846521143296
(dp2171
sI1493820511
(dp2172
sI270418963
(dp2173
sI3324421217
(dp2174
sI936604771
(dp2175
sI306263143
(dp2176
sI1890679914
(dp2177
sI3051961874
(dp2178
sI825488766748020736
(dp2179
sI2273055855
(dp2180
sI885797795780845569
(dp2181
sI3710757395
(dp2182
sI784477688979451904
(dp2183
sI137934405
(dp2184
sI1540643960
(dp2185
sI22064251
(dp2186
sI3291460736
(dp2187
sI169270401
(dp2188
sI894526659101155328
(dp2189
sI897202350502416384
(dp2190
sI845627225516969984
(dp2191
sI156202119
(dp2192
sI3070413495
(dp2193
sI2638257292
(dp2194
sI991709378
(dp2195
sI136729742
(dp2196
sI1295719572
(dp2197
sI904859433469177856
(dp2198
sI870757237094051840
(dp2199
sI2710582428
(dp2200
sI759571157448331264
(dp2201
sI928199839
(dp2202
sI743064432
(dp2203
sI896697378262192129
(dp2204
sI233694406
(dp2205
sI848635831199944708
(dp2206
sI3436936359
(dp2207
sI4039894185
(dp2208
sI906983148193546240
(dp2209
sI1242977138
(dp2210
sI4189297841
(dp2211
sI83705010
(dp2212
sI1047989431
(dp2213
sI884122792026927104
(dp2214
sI394284461
(dp2215
sI252529850
(dp2216
sI3116389565
(dp2217
sI1487393983
(dp2218
sI1915534530
(dp2219
sI582669510
(dp2220
sI1629459656
(dp2221
sI859532256829997056
(dp2222
sI298040523
(dp2223
sI906969480550592518
(dp2224
sI280130770
(dp2225
sI100273699
(dp2226
sI547931350
(dp2227
sI1603552471
(dp2228
sI344012417
(dp2229
sI902102511854727168
(dp2230
sI2437086428
(dp2231
sI291069152
(dp2232
sI253299939
(dp2233
sI791707249324490752
(dp2234
sI88167658
(dp2235
sI207213805
(dp2236
sI421198573
(dp2237
sI2466520308
(dp2238
sI1617304747
(dp2239
sI873958369756930048
(dp2240
sI1429056762
(dp2241
sI715329805433094146
(dp2242
sI1596239100
(dp2243
sI2213803262
(dp2244
sI3387381779
(dp2245
sI2478685441
(dp2246
sI425819395
(dp2247
sI181513716
(dp2248
sI885742477461921792
(dp2249
sI396695111
(dp2250
sI893825822699728896
(dp2251
sI3246748343
(dp2252
sI117763342
(dp2253
sI843441339840843776
(dp2254
sI3677748496
(dp2255
sI4242265361
(dp2256
sI1307499794
(dp2257
sI1125973268
(dp2258
sI3794943256
(dp2259
sI906968274994434049
(dp2260
sI3108605957
(dp2261
sI19072286
(dp2262
sI3401781125
(dp2263
sI872841928555077633
(dp2264
sI2201793829
(dp2265
sI809304613576908800
(dp2266
sI869261554277113858
(dp2267
sI388771113
(dp2268
sI835623556503449600
(dp2269
sI2493107502
(dp2270
sI4839859503
(dp2271
sI3329195313
(dp2272
sI902654044992409606
(dp2273
sI847180687077785602
(dp2274
sI3701744957
(dp2275
sI1657224510
(dp2276
sI713366847
(dp2277
sI869150312401182722
(dp2278
sI773956253882146816
(dp2279
sI880460393457569792
(dp2280
sI768577061560672256
(dp2281
sI868121908151296000
(dp2282
sI2415011159
(dp2283
sI347753817
(dp2284
sI778284443710676992
(dp2285
sI899289780676165632
(dp2286
sI829046866675372032
(dp2287
sI3415590238
(dp2288
sI154493840
(dp2289
sI893181474974744576
(dp2290
sI417434981
(dp2291
sI880781226709331968
(dp2292
sI461284712
(dp2293
sI274505066
(dp2294
sI358853997
(dp2295
sI802843363036766208
(dp2296
sI706907668171124736
(dp2297
sI899750108253868032
(dp2298
sI888048028342472704
(dp2299
sI186938747
(dp2300
sI4873068778
(dp2301
sI876191141749825540
(dp2302
sI836178363995815936
(dp2303
sI894192879014469632
(dp2304
sI892467846567079936
(dp2305
sI346203529
(dp2306
sI269503883
(dp2307
sI905793705369624577
(dp2308
sI155491224
(dp2309
sI3292253586
(dp2310
sI886146781331025920
(dp2311
sI891906900903813121
(dp2312
sI2179212700
(dp2313
sI876161990397394944
(dp2314
sI721800608
(dp2315
sI3014421922
(dp2316
sI169131427
(dp2317
sI885626317294776321
(dp2318
sI2198091174
(dp2319
sI2243227047
(dp2320
sI303959465
(dp2321
sI782322276675059712
(dp2322
sI770704248954912768
(dp2323
sI4704572845
(dp2324
sI768400634697613312
(dp2325
sI51506610
(dp2326
sI404037047
(dp2327
sI1223202234
(dp2328
sI734806553795153921
(dp2329
sI3094343105
(dp2330
I3094343105
(dp2331
g872
I1
ssI289016395
(dp2332
g872
I9
sssI893584530048790530
(dp2333
sI2276625427
(dp2334
sI2939133381
(dp2335
sI4070120902
(dp2336
sI729845191
(dp2337
sI296936905
(dp2338
sI3994928591
(dp2339
sI849678537372180480
(dp2340
sI881740822500319232
(dp2341
sI2288674262
(dp2342
sI904976962392870912
(dp2343
sI497171364
(dp2344
sI3389562106
(dp2345
sI897681766290509825
(dp2346
sI819921194036166656
(dp2347
sI4284921317
(dp2348
sI1704156648
(dp2349
sI755635394235031553
(dp2350
sI3747716595
(dp2351
sI470384116
(dp2352
sI2704506110
(dp2353
sI370726393
(dp2354
sI481461757
(dp2355
sI871055690852446212
(dp2356
sI1080641024
(dp2357
sI635000322
(dp2358
sI3321867779
(dp2359
sI869745301531357185
(dp2360
sI2789150213
(dp2361
sI2751819270
(dp2362
sI3396189441
(dp2363
sI2160721417
(dp2364
sI3091678733
(dp2365
sI50712079
(dp2366
sI2945101330
(dp2367
sI337612309
(dp2368
sI340821526
(dp2369
sI889483509399683072
(dp2370
sI195051554
(dp2371
sI875039141116993538
(dp2372
sI844519966930092033
(dp2373
sI900906077675499520
(dp2374
sI1265587753
(dp2375
sI905104955182383104
(dp2376
sI2302930476
(dp2377
sI533202479
(dp2378
sI2427747889
(dp2379
sI3131573811
(dp2380
sI884105932304678913
(dp2381
sI2396616793
(dp2382
sI906484226123591680
(dp2383
sI713724139081744384
(dp2384
sI756976820625481728
(dp2385
sI363820603
(dp2386
sI803225918340734976
(dp2387
sI1141659205
(dp2388
sI832725569066278912
(dp2389
sI2472670793
(dp2390
sI1160189515
(dp2391
sI70377037
(dp2392
sI821296724253798400
(dp2393
sI1491517009
(dp2394
sI390355588
(dp2395
sI885846391414771712
(dp2396
sI107451662
(dp2397
sI793516044816093184
(dp2398
sI3208724061
(dp2399
sI474127968
(dp2400
sI1579980385
(dp2401
sI704310298841370624
(dp2402
sI889609988200706048
(dp2403
sI2425410558
(dp2404
sI2727274091
(dp2405
sI232799854
(dp2406
sI743452810625294336
(dp2407
sI543391651
(dp2408
sI815275569046814721
(dp2409
sI3341999734
(dp2410
sI3213291129
(dp2411
sI1180221054
(dp2412
I2789150213
(dp2413
g872
I4
sssI848116675731959810
(dp2414
sI906979604111478784
(dp2415
sI2250880280
(dp2416
sI906917960710868992
(dp2417
sI2918080149
(dp2418
sI817848020607922176
(dp2419
sI4144438935
(dp2420
sI333962904
(dp2421
sI850375682366595072
(dp2422
sI299812510
(dp2423
sI1077460640
(dp2424
sI906865813969358849
(dp2425
sI2328307368
(dp2426
sI868136197163556864
(dp2427
I860532597419651073
(dp2428
g872
I1
sssI2584108714
(dp2429
sI2961088173
(dp2430
sI754751925652971521
(dp2431
sI217120434
(dp2432
sI1565660852
(dp2433
sI436432568
(dp2434
sI1042540220
(dp2435
sI515600063
(dp2436
sI1389014720
(dp2437
sI900859175030464513
(dp2438
sI108394178
(dp2439
sI2263815875
(dp2440
sI1609965253
(dp2441
sI4915406534
(dp2442
sI1610244469
(dp2443
sI4806784713
(dp2444
sI379683447
(dp2445
sI857620141118509056
(dp2446
sI893923775082901505
(dp2447
sI2589990614
(dp2448
sI38721239
(dp2449
sI802084714706325505
(dp2450
sI58738398
(dp2451
sI1228494560
(dp2452
sI357670627
(dp2453
sI1271905574
(dp2454
sI322125543
(dp2455
sI868204397779668993
(dp2456
sI3845988077
(dp2457
sI821031326824407040
(dp2458
sI1298695921
(dp2459
sI2778365682
(dp2460
sI2389647093
(dp2461
sI448077560
(dp2462
sI969096954
(dp2463
sI1861840638
(dp2464
sI2343610111
(dp2465
sI905163320046608384
(dp2466
sI613385174
(dp2467
sI903883595458207744
(dp2468
sI861460630850740224
(dp2469
sI599536004
(dp2470
sI2751797003
(dp2471
I2751797003
(dp2472
g872
I1
sssI2273091342
(dp2473
sI128591631
(dp2474
sI906798942775586817
(dp2475
sI114431764
(dp2476
sI4319160087
(dp2477
sI856403737
(dp2478
sI230268702
(dp2479
sI336977695
(dp2480
sI2182231840
(dp2481
sI905089535847096321
(dp2482
sI905531757730115584
(dp2483
sI906972512650776577
(dp2484
sI905730113450508288
(dp2485
sI74424108
(dp2486
sI1267349293
(dp2487
sI2724583215
(dp2488
sI765003572
(dp2489
sI1219841851
(dp2490
sI2387380028
(dp2491
sI51042308
(dp2492
sI892342742025736192
(dp2493
sI738408398300012544
(dp2494
sI2848687937
(dp2495
sI906948141055926274
(dp2496
sI2959961925
(dp2497
sI2265673543
(dp2498
sI880813214061166592
(dp2499
sI3300798283
(dp2500
sI3250448206
(dp2501
sI875484977164689408
(dp2502
sI528296539
(dp2503
sI2475845465
(dp2504
sI827053288499580928
(dp2505
sI3374350173
(dp2506
sI2223760357
(dp2507
sI366262114
(dp2508
sI63692643
(dp2509
sI832618154232733701
(dp2510
sI802392555807735808
(dp2511
sI908130157
(dp2512
sI906422811195035648
(dp2513
sI807593127120871424
(dp2514
sI853631042749698053
(dp2515
sI753290592847851520
(dp2516
sI2873749766
(dp2517
sI808559753794383872
(dp2518
I883367303081074688
(dp2519
g872
I1
sssI823854735182753792
(dp2520
sI1595481985
(dp2521
sI3004735362
(dp2522
sI1205575555
(dp2523
sI896380708465373185
(dp2524
sI737023638
(dp2525
sI787021894331592704
(dp2526
sI2617710473
(dp2527
sI212719501
(dp2528
sI626835343
(dp2529
sI1519617937
(dp2530
sI892122604898840576
(dp2531
sI543336346
(dp2532
sI890279714375573505
(dp2533
sI2968602526
(dp2534
sI708048802
(dp2535
sI1636335715
(dp2536
sI721723193619312641
(dp2537
sI3092416421
(dp2538
sI901607985641914368
(dp2539
sI804959292424077312
(dp2540
sI705650612
(dp2541
sI893566207588225025
(dp2542
sI860415357865140225
(dp2543
sI183166915
(dp2544
sI4075970055
(dp2545
sI4515716422
(dp2546
sI861577506075365376
(dp2547
sI187099469
(dp2548
sI321298384
(dp2549
sI3695245517
(dp2550
sI3036297891
(dp2551
sI784407165146656768
(dp2552
sI2729445333
(dp2553
sI3522000869
(dp2554
sI899036797048696832
(dp2555
sI232513512
(dp2556
sI883027621600165888
(dp2557
sI838762132003045376
(dp2558
sI706992278003392512
(dp2559
sI764205371699425280
(dp2560
sI1622892535
(dp2561
sI2325680120
(dp2562
sI17158140
(dp2563
sI801785410238214148
(dp2564
ssS'edge'
p2565
g867
sS'graph'
p2566
(dp2567
sS'adjlist_dict_factory'
p2568
g864
sS'adj'
p2569
g867
sS'pred'
p2570
(dp2571
I891384910921048064
(dp2572
cnumpy.core.multiarray
scalar
p2573
(cnumpy
dtype
p2574
(S'i8'
I0
I1
tRp2575
(I3
S'<'
NNNI-1
I-1
I0
tbS'\xa4M\n\x07\x00\x00\x00\x00'
tRp2576
g1135
ssI906252573732208640
(dp2577
sI39710722
(dp2578
sI905127538925727747
(dp2579
g2573
(g2575
S'\x9f\xcaa\x01\x00\x00\x00\x00'
tRp2580
g1224
ssI889559479376896004
(dp2581
g2580
g1225
ssI768928273812246533
(dp2582
g2576
g1139
ssI717968149837119488
(dp2583
g2580
g1761
ssI847177160725086209
(dp2584
g2580
g1222
ssI891664378579308554
(dp2585
g2580
g1229
ssI819666672630071298
(dp2586
g2576
g1141
ssI3341555373
(dp2587
g2580
g1231
ssI889220266009784321
(dp2588
g2580
g1232
ssI906947261434875907
(dp2589
g2580
g1233
ssI2510030868
(dp2590
g2580
g1234
ssI191529646
(dp2591
g2573
(g2575
S'\x02\xf0]\x02\x00\x00\x00\x00'
tRp2592
g894
ssI109010968
(dp2593
g2580
g1235
ssI885927018067619844
(dp2594
g2580
g1236
ssI60231707
(dp2595
g2576
g1145
ssI787040422199750661
(dp2596
g2580
g1237
ssI363866141
(dp2597
g2580
g1238
ssI896437306579701765
(dp2598
g2580
g1226
ssI3298385953
(dp2599
g2580
g1240
ssI3346556962
(dp2600
g2580
g1241
ssI799519849529610240
(dp2601
g2576
g1136
ssI710119456534560769
(dp2602
g2580
g1243
ssI804037996551012358
(dp2603
g2580
g1244
ssI3387844647
(dp2604
g2580
g1245
ssI3163650396
(dp2605
g2580
g1246
ssI896611194588594176
(dp2606
g2580
g1247
ssI307818162
(dp2607
g2580
g1248
ssI322076719
(dp2608
g2580
g1249
ssI855512461872701442
(dp2609
g2580
g1250
ssI874029090164137984
(dp2610
g2592
g916
ssI362119223
(dp2611
g2580
g1251
ssI4795336761
(dp2612
g2580
g1252
ssI2627455034
(dp2613
g2580
g1253
ssI1588881468
(dp2614
g2580
g1254
ssI346059786
(dp2615
g2580
g1255
ssI121024574
(dp2616
g2580
g1256
ssI751340422966960128
(dp2617
g2580
g1257
ssI876449158667829250
(dp2618
g2580
g1230
ssI869062997687316480
(dp2619
g2580
g1258
ssI3023074207
(dp2620
g2592
g906
ssI834686861775880193
(dp2621
g2580
g1426
ssI1032583238
(dp2622
g2580
g1260
ssI897904801207529478
(dp2623
g2580
g1261
ssI2729287754
(dp2624
g2580
g1262
ssI2404128843
(dp2625
g2580
g1263
ssI855894956451483648
(dp2626
g2580
g1264
ssI3377690704
(dp2627
g2580
g1265
ssI754025577024221184
(dp2628
g2580
g1266
ssI860532597419651073
(dp2629
g2573
(g2575
S'\x00\xa0\x97\x90E=\x0c\x0c'
tRp2630
g2428
ssI1065926743
(dp2631
g2580
g1267
ssI1286322264
(dp2632
g2580
g1268
ssI24422489
(dp2633
g2580
g1269
ssI3164278875
(dp2634
g2580
g1270
ssI289299813
(dp2635
g2580
g1271
ssI725994526175858688
(dp2636
g2580
g1712
ssI708745320
(dp2637
g2580
g1273
ssI805461281629175808
(dp2638
g2580
g1274
ssI984522858
(dp2639
g2580
g1275
ssI2221930610
(dp2640
g2580
g1276
ssI258021491
(dp2641
g2580
g1277
ssI4243388536
(dp2642
g2580
g1278
ssI557949844
(dp2643
g2580
g1746
ssI1019390076
(dp2644
g2576
g1146
ssI1550733440
(dp2645
g2580
g1280
ssI830155375865368576
(dp2646
g2580
g1281
ssI431620231
(dp2647
g2580
g1282
ssI3409499842
(dp2648
g2592
g905
ssI518391832
(dp2649
g2580
g1283
ssI3349342355
(dp2650
g2580
g1284
ssI2620911641
(dp2651
g2580
g1285
ssI2892077217
(dp2652
g2580
g1286
ssI759083082288861185
(dp2653
g2580
g1287
ssI888817558643716096
(dp2654
g2580
g1288
ssI902824091622703104
(dp2655
g2580
g1583
ssI468338716
(dp2656
g2580
g1289
ssI897028290476736512
(dp2657
g2580
g1290
ssI3402524848
(dp2658
g2580
g1291
ssI313536689
(dp2659
g2580
g1292
ssI708266424205254656
(dp2660
g2580
g1293
ssI4250466994
(dp2661
g2580
g1294
ssI2516278799
(dp2662
g2580
g1295
ssI1027313850
(dp2663
g2580
g1296
ssI3388020767
(dp2664
g2580
g1297
ssI2878585546
(dp2665
g2580
g1298
ssI906987649046646784
(dp2666
g2580
g1653
ssI785063001732833280
(dp2667
g2580
g1300
ssI775423106999521282
(dp2668
g2580
g1301
ssI2367912133
(dp2669
g2580
g1302
ssI874586784281264128
(dp2670
g2580
g1303
ssI713766379229458433
(dp2671
g2592
g885
ssI906908169863090176
(dp2672
g2580
g1304
ssI1593998029
(dp2673
g2580
g1305
ssI888871996779634688
(dp2674
g2580
g1306
ssI758643857584189440
(dp2675
g2580
g1307
ssI714468816437305344
(dp2676
g2592
g877
ssI3326599384
(dp2677
g2580
g1308
ssI472000731
(dp2678
g2580
g1309
ssI2645201120
(dp2679
g2580
g1310
ssI3078224098
(dp2680
g2580
g1311
ssI3065546986
(dp2681
g2580
g1312
ssI2934927597
(dp2682
g2580
g1313
ssI340308206
(dp2683
g2580
g1314
ssI4440213743
(dp2684
g2580
g1315
ssI2308708595
(dp2685
g2580
g1316
ssI252332089
(dp2686
g2592
g917
ssI3253815544
(dp2687
g2580
g1317
ssI746871699103223809
(dp2688
g2580
g1318
ssI724844861002768384
(dp2689
g2580
g1319
ssI864938904138469377
(dp2690
g2580
g1320
ssI481952811
(dp2691
g2580
g1321
ssI883426467551600640
(dp2692
g2580
g1322
ssI4924308645
(dp2693
g2580
g1323
ssI828436568914403328
(dp2694
g2573
(g2575
S'\x00 \x16\x91\xab2\x7f\x0b'
tRp2695
g1048
sg2580
g1324
ssI2330093832
(dp2696
g2592
g879
ssI29442313
(dp2697
sI3351124235
(dp2698
g2580
g1325
ssI578449794
(dp2699
g2580
g1326
ssI212573765
(dp2700
g2592
g888
ssI3749445677
(dp2701
g2580
g1327
ssI2881186073
(dp2702
g2580
g1328
ssI2598158618
(dp2703
g2580
g1329
ssI2734266653
(dp2704
g2580
g1330
ssI765691193154015232
(dp2705
g2580
g1331
ssI3082533152
(dp2706
g2580
g1332
ssI711972175528534017
(dp2707
g2580
g1333
ssI2669580583
(dp2708
g2580
g1334
ssI3309588777
(dp2709
g2580
g1335
ssI961129436
(dp2710
g2580
g1336
ssI3920802093
(dp2711
g2580
g1337
ssI494237065
(dp2712
g2580
g1338
ssI593682747
(dp2713
g2592
g924
ssI1327925564
(dp2714
g2580
g1339
ssI354875711
(dp2715
g2580
g1721
ssI782476241383350272
(dp2716
g2580
g1341
ssI863814457344086016
(dp2717
g2580
g1971
ssI906513803583553536
(dp2718
g2580
g1342
ssI738090230616600576
(dp2719
g2580
g1343
ssI2312722764
(dp2720
g2580
g1344
ssI862347613454127104
(dp2721
g2580
g1345
ssI2949966160
(dp2722
g2580
g1346
ssI1478246737
(dp2723
g2580
g1347
ssI3327037779
(dp2724
g2580
g1348
ssI318607700
(dp2725
g2580
g1349
ssI466880853
(dp2726
g2580
g1350
ssI900286645001490433
(dp2727
g2580
g1351
ssI482054488
(dp2728
g2580
g1352
ssI790146116058746880
(dp2729
g2580
g1353
ssI2935204191
(dp2730
g2580
g1354
ssI984426848
(dp2731
g2580
g1355
ssI269039972
(dp2732
g2580
g1356
ssI807339629817004032
(dp2733
g2580
g1357
ssI2867489511
(dp2734
g2580
g1358
ssI4646222189
(dp2735
g2580
g1359
ssI3231334461
(dp2736
g2580
g1360
ssI791034076320952320
(dp2737
g2580
g1361
ssI2515178217
(dp2738
g2580
g1494
ssI901162103071019008
(dp2739
g2580
g1362
ssI2563584379
(dp2740
g2580
g1363
ssI1516054908
(dp2741
g2580
g1364
ssI75960384
(dp2742
g2592
g904
ssI755465712706154496
(dp2743
g2580
g1365
ssI1024559492
(dp2744
g2580
g1366
ssI934977925
(dp2745
g2580
g1367
ssI834765994711199744
(dp2746
g2580
g1368
ssI118664959
(dp2747
g2580
g1369
ssI853218161893814272
(dp2748
g2580
g1370
ssI836298369949700098
(dp2749
g2580
g1371
ssI616493066
(dp2750
g2580
g1372
ssI119071123
(dp2751
g2580
g1373
ssI299739540
(dp2752
g2580
g1374
ssI290152854
(dp2753
g2580
g1375
ssI3762086296
(dp2754
g2580
g1376
ssI906225256792240128
(dp2755
g2580
g1377
ssI2667908849
(dp2756
g2580
g1379
ssI291656105
(dp2757
g2580
g1380
ssI4104255916
(dp2758
g2576
g1142
ssI843422518014894081
(dp2759
g2580
g1382
ssI3291347915
(dp2760
g2580
g1383
ssI711964407119499264
(dp2761
g2580
g1384
ssI3351359925
(dp2762
g2580
g1385
ssI1031510454
(dp2763
g2580
g1386
ssI731080759
(dp2764
g2592
g911
ssI2664841658
(dp2765
g2592
g920
ssI110173599
(dp2766
g2592
g901
ssI769932383185436672
(dp2767
g2580
g1444
ssI3062096321
(dp2768
g2573
(g2575
S'\xc1\xe1\x83\xb6\x00\x00\x00\x00'
tRp2769
g1122
sg2580
g1389
ssI828689735577120770
(dp2770
g2580
g1390
ssI2315444982
(dp2771
g2580
g1391
ssI4122606023
(dp2772
g2580
g1392
ssI755318547950206976
(dp2773
g2580
g1393
ssI729793005847236608
(dp2774
g2580
g1394
ssI368480642
(dp2775
g2592
g874
ssI906940670694363136
(dp2776
g2580
g1395
ssI296331730
(dp2777
g2580
g1396
ssI882246838472122368
(dp2778
g2592
g873
ssI446291651
(dp2779
g2580
g1397
ssI504971736
(dp2780
g2580
g1398
ssI118115748
(dp2781
sI733170139
(dp2782
g2580
g1400
ssI790207364309848064
(dp2783
g2580
g1242
ssI519694757
(dp2784
g2580
g1402
ssI839517734085996547
(dp2785
g2592
g875
ssI895989138444431361
(dp2786
g2580
g1403
ssI420585955
(dp2787
g2580
g1404
ssI2972662246
(dp2788
g2580
g1405
ssI3027173874
(dp2789
g2580
g1407
ssI264358387
(dp2790
g2580
g1408
ssI2570865406
(dp2791
g2580
g1409
ssI744800465683001346
(dp2792
g2580
g1410
ssI3402572283
(dp2793
g2580
g1411
ssI585767420
(dp2794
g2580
g1412
ssI835952812433551364
(dp2795
g2580
g1413
ssI785063349889499136
(dp2796
g2580
g1612
ssI96863659
(dp2797
g2580
g1415
ssI833693418815635456
(dp2798
g2580
g1416
ssI906934017622245376
(dp2799
g2580
g1417
ssI2490720780
(dp2800
g2592
g881
ssI762008078
(dp2801
g2580
g1418
ssI101004717
(dp2802
g2580
g1419
ssI256451091
(dp2803
g2580
g1420
ssI442838446
(dp2804
g2580
g1421
ssI269873241
(dp2805
g2580
g1422
ssI2255438360
(dp2806
g2580
g1423
ssI905773888226951169
(dp2807
g2580
g1424
ssI887063820635713537
(dp2808
g2580
g1425
ssI835212587738480641
(dp2809
g2580
g1259
ssI315932422
(dp2810
g2580
g1427
ssI886143734655713280
(dp2811
g2580
g1428
ssI444195372
(dp2812
g2580
g1429
ssI735069782186283008
(dp2813
g2580
g1457
ssI2902641209
(dp2814
g2592
g899
ssI894576985581785088
(dp2815
g2580
g1430
ssI2941033024
(dp2816
g2580
g1431
ssI1605734977
(dp2817
g2580
g1752
ssI778607459032236032
(dp2818
g2580
g1433
ssI506382921
(dp2819
g2580
g1434
ssI64418378
(dp2820
g2592
g910
ssI289016395
(dp2821
g2573
(g2575
S'\xc1\xedo\xb8\x00\x00\x00\x00'
tRp2822
g2332
ssI846657293563383808
(dp2823
g2580
g1435
ssI1260509828
(dp2824
g2592
g886
ssI884104663221641216
(dp2825
g2580
g1437
ssI1854414908
(dp2826
g2580
g1438
ssI813347658836377601
(dp2827
g2580
g1623
ssI312652379
(dp2828
g2580
g1439
ssI1416032862
(dp2829
g2580
g1440
ssI3325319596
(dp2830
g2580
g1381
ssI314727009
(dp2831
g2580
g1441
ssI239082087
(dp2832
g2580
g1442
ssI402988831
(dp2833
g2580
g1443
ssI755777853195714560
(dp2834
g2580
g1637
ssI2933193323
(dp2835
g2580
g1445
ssI1488960109
(dp2836
g2580
g1446
ssI826547056873525248
(dp2837
g2580
g1447
ssI414577263
(dp2838
g2580
g1448
ssI832947903471767552
(dp2839
g2580
g1406
ssI817239688423600128
(dp2840
g2580
g1450
ssI2996588649
(dp2841
g2580
g1451
ssI469604986
(dp2842
g2580
g1452
ssI185131114
(dp2843
g2580
g1453
ssI3065653887
(dp2844
g2580
g1454
ssI957923970
(dp2845
g2580
g1455
ssI43332228
(dp2846
g2580
g1456
ssI906754562375241728
(dp2847
g2580
g1449
ssI2256904580
(dp2848
g2580
g1458
ssI4394433165
(dp2849
g2580
g1459
ssI628415124
(dp2850
g2580
g1460
ssI897421076149534721
(dp2851
g2580
g1461
ssI880019981131542528
(dp2852
g2580
g1462
ssI373811867
(dp2853
g2580
g1463
ssI717779482682265600
(dp2854
g2580
g1272
ssI23186079
(dp2855
sI4841550496
(dp2856
g2580
g1464
ssI2202862243
(dp2857
g2580
g1465
ssI898253247986749441
(dp2858
g2580
g1506
ssI2845350565
(dp2859
g2580
g1467
ssI868166310
(dp2860
g2580
g1468
ssI830855904157376512
(dp2861
g2580
g1469
ssI784696235882151936
(dp2862
g2580
g1414
ssI2214671021
(dp2863
g2580
g1470
ssI369554094
(dp2864
g2580
g1471
ssI741521214808727552
(dp2865
g2580
g1472
ssI303329971
(dp2866
g2580
g1473
ssI1086338846
(dp2867
g2580
g1474
ssI893128736320761858
(dp2868
g2580
g1776
ssI840656785669275648
(dp2869
g2580
g1475
ssI904331546487869440
(dp2870
g2580
g1476
ssI759338709057691648
(dp2871
g2580
g1477
ssI3374635713
(dp2872
g2580
g1478
ssI1380061890
(dp2873
g2580
g1479
ssI3327869638
(dp2874
g2580
g1480
ssI764433861472288768
(dp2875
g2580
g1786
ssI733374201210490881
(dp2876
g2580
g1482
ssI2682043082
(dp2877
g2580
g1483
ssI883523294737125376
(dp2878
g2580
g1484
ssI902592004340801537
(dp2879
g2580
g1485
ssI3038992504
(dp2880
g2580
g1486
ssI2845516498
(dp2881
g2580
g1487
ssI20912932
(dp2882
g2580
g1519
ssI2699809498
(dp2883
g2580
g1488
ssI3438267472
(dp2884
g2580
g1489
ssI475165406
(dp2885
g2580
g1490
ssI1579244256
(dp2886
g2580
g1491
ssI858901746101473281
(dp2887
g2580
g1401
ssI101057250
(dp2888
g2592
g923
ssI3248015945
(dp2889
g2580
g1492
ssI711636070874685440
(dp2890
g2580
g1493
ssI803141974480027648
(dp2891
g2580
g1388
ssI435770093
(dp2892
g2580
g1495
ssI778587580577226752
(dp2893
g2580
g1496
ssI19485425
(dp2894
g2592
g928
ssI879648680046993412
(dp2895
g2580
g1497
ssI621093619
(dp2896
g2580
g1498
ssI556139252
(dp2897
g2580
g1499
ssI537303798
(dp2898
g2580
g1500
ssI2746491639
(dp2899
g2580
g1501
ssI4149056254
(dp2900
g2580
g1502
ssI789514452009967616
(dp2901
g2580
g1503
ssI1106420484
(dp2902
g2580
g1504
ssI766705328142573568
(dp2903
g2580
g1505
ssI871354539072507905
(dp2904
g2580
g1466
ssI327535370
(dp2905
g2580
g1507
ssI1330950924
(dp2906
g2580
g1508
ssI3374729997
(dp2907
g2580
g1509
ssI2706432783
(dp2908
g2580
g1510
ssI1212889872
(dp2909
g2580
g1511
ssI267158659
(dp2910
g2580
g1512
ssI1215238932
(dp2911
g2580
g1513
ssI799650628477874176
(dp2912
g2580
g1514
ssI3018994137
(dp2913
g2580
g1399
ssI794141441169702912
(dp2914
g2580
g1515
ssI592071715
(dp2915
g2580
g1516
ssI823501316764958720
(dp2916
g2580
g1517
ssI333589281
(dp2917
g2580
g1518
ssI885812941802659841
(dp2918
g2580
g1755
ssI773860142
(dp2919
g2580
g1520
ssI235830749
(dp2920
g2592
g919
ssI859865121660784640
(dp2921
g2580
g1521
ssI903188160640897025
(dp2922
g2580
g1522
ssI3007144764
(dp2923
g2592
g902
ssI831271008271212545
(dp2924
g2580
g1523
ssI1566542654
(dp2925
g2580
g1524
ssI2472215359
(dp2926
g2580
g1525
ssI1490979648
(dp2927
g2592
g921
ssI270322497
(dp2928
g2580
g1526
ssI810446985920651264
(dp2929
g2580
g1933
ssI883367303081074688
(dp2930
g2573
(g2575
S'\x00p\x97\xe8\xcf\x948\x0b'
tRp2931
g2519
ssI896274914025537536
(dp2932
g2580
g1528
ssI902634861013454850
(dp2933
g2580
g1529
ssI375624524
(dp2934
g2580
g1530
ssI90428242
(dp2935
g2580
g1531
ssI729979235025211392
(dp2936
g2580
g1532
ssI1680694100
(dp2937
g2580
g1533
ssI941556013
(dp2938
g2580
g1534
ssI886238298791915520
(dp2939
g2580
g1535
ssI47039322
(dp2940
g2580
g1536
ssI809878332334600192
(dp2941
g2580
g1944
ssI2405118814
(dp2942
g2580
g1538
ssI885075773736050691
(dp2943
g2580
g1539
ssI2438644579
(dp2944
g2580
g1540
ssI1568074596
(dp2945
g2580
g1541
ssI1630362470
(dp2946
g2580
g1542
ssI2706778985
(dp2947
g2580
g1543
ssI506229614
(dp2948
g2580
g1544
ssI3049888623
(dp2949
g2580
g1545
ssI3305257840
(dp2950
g2580
g1546
ssI2755341170
(dp2951
g2580
g1547
ssI761294337317728256
(dp2952
g2592
g918
ssI881830838081642500
(dp2953
g2580
g1548
ssI392870784
(dp2954
g2580
g1549
ssI3050517378
(dp2955
g2580
g1550
ssI976180099
(dp2956
g2580
g1551
ssI758196265243013120
(dp2957
g2580
g1552
ssI353079105
(dp2958
g2580
g1553
ssI317757634
(dp2959
g2580
g1554
ssI1593715597
(dp2960
g2580
g1555
ssI1617546126
(dp2961
g2580
g1556
ssI3592950672
(dp2962
g2576
g1144
ssI472096892
(dp2963
g2580
g1279
ssI2325496723
(dp2964
g2580
g1557
ssI2884639636
(dp2965
g2580
g1558
ssI310449047
(dp2966
g2580
g1559
ssI709612440
(dp2967
g2580
g1560
ssI842129187557236741
(dp2968
g2580
g1239
ssI44330614
(dp2969
g2592
g931
ssI897642935747039234
(dp2970
g2580
g1562
ssI317455264
(dp2971
g2580
g1563
ssI2658661872
(dp2972
g2580
g1564
ssI847821912365510660
(dp2973
g2580
g1565
ssI903617507776491521
(dp2974
g2580
g1566
ssI906053382410051584
(dp2975
g2580
g1567
ssI223189930
(dp2976
g2580
g1568
ssI897148821444198400
(dp2977
g2580
g1569
ssI3435951377
(dp2978
g2580
g1570
ssI96871343
(dp2979
g2580
g1571
ssI2958271408
(dp2980
g2580
g1572
ssI543310769
(dp2981
g2580
g1573
ssI2249120692
(dp2982
g2592
g896
ssI2203141278
(dp2983
g2580
g1574
ssI3346410424
(dp2984
g2580
g1575
ssI3160896441
(dp2985
g2580
g1576
ssI891339320078028800
(dp2986
g2580
g1577
ssI887356330129985536
(dp2987
g2580
g1578
ssI2999466945
(dp2988
g2580
g1579
ssI790684456713613314
(dp2989
g2580
g1580
ssI323349444
(dp2990
g2580
g1581
ssI174615828
(dp2991
g2580
g1582
ssI832864937269657600
(dp2992
g2580
g1378
ssI3794041335
(dp2993
g2580
g1584
ssI2336199629
(dp2994
g2580
g1585
ssI712341891547840512
(dp2995
g2580
g1586
ssI906967396115783680
(dp2996
g2580
g1587
ssI246287318
(dp2997
g2580
g1588
ssI278584484
(dp2998
g2580
g1589
ssI855890197795524609
(dp2999
g2580
g1590
ssI897990442981240832
(dp3000
g2580
g1591
ssI177256613
(dp3001
g2580
g1592
ssI370371553
(dp3002
g2580
g1593
ssI4428286948
(dp3003
g2580
g1594
ssI960775141
(dp3004
g2580
g1595
ssI903694918652219393
(dp3005
g2580
g1596
ssI3302105596
(dp3006
g2580
g1597
ssI944341994
(dp3007
g2580
g1598
ssI877692358254612480
(dp3008
g2580
g1599
ssI2697587695
(dp3009
g2580
g1600
ssI707011235217285120
(dp3010
g2580
g1601
ssI897112711041089536
(dp3011
g2580
g1602
ssI2909333110
(dp3012
g2580
g1603
ssI2308871678
(dp3013
g2580
g1604
ssI4906376182
(dp3014
g2580
g1605
ssI3247942647
(dp3015
g2580
g1606
ssI2715780092
(dp3016
g2592
g934
ssI831238665531715588
(dp3017
g2580
g1607
ssI453817343
(dp3018
g2580
g1608
ssI306436098
(dp3019
g2580
g1609
ssI44094466
(dp3020
g2592
g889
ssI3035341827
(dp3021
g2580
g1610
ssI2805619716
(dp3022
g2580
g1611
ssI767995186605686784
(dp3023
sI184419338
(dp3024
g2580
g1613
ssI820229634
(dp3025
g2580
g1614
ssI334365711
(dp3026
g2580
g1615
ssI711863192088125440
(dp3027
g2592
g871
ssI106132499
(dp3028
g2580
g1616
ssI2268005400
(dp3029
g2580
g1617
ssI900456611860410373
(dp3030
g2580
g1618
ssI4319214621
(dp3031
g2580
g1619
ssI2643381281
(dp3032
g2580
g1620
ssI494998562
(dp3033
g2580
g1621
ssI877237559306407936
(dp3034
g2580
g1622
ssI906977063449624577
(dp3035
g2580
g1228
ssI2751194152
(dp3036
g2580
g1624
ssI2389371947
(dp3037
g2580
g1625
ssI2931092526
(dp3038
g2580
g1626
ssI1279827002
(dp3039
g2580
g1627
ssI902593654841376770
(dp3040
g2580
g1628
ssI841186217198784512
(dp3041
g2580
g1629
ssI899260812275089408
(dp3042
g2580
g1630
ssI114204514
(dp3043
g2580
g1930
ssI2608010318
(dp3044
g2580
g1632
ssI886671524668858368
(dp3045
g2580
g1633
ssI2361401528
(dp3046
g2580
g1634
ssI879049231650234368
(dp3047
g2580
g1700
ssI880590468320571393
(dp3048
g2580
g1636
ssI2811354639
(dp3049
g2580
g1803
ssI815976846521143296
(dp3050
g2580
g1638
ssI1493820511
(dp3051
g2580
g1639
ssI270418963
(dp3052
g2580
g1640
ssI3324421217
(dp3053
g2580
g1641
ssI936604771
(dp3054
g2580
g1642
ssI306263143
(dp3055
g2580
g1643
ssI1890679914
(dp3056
g2580
g1644
ssI3051961874
(dp3057
g2580
g1804
ssI825488766748020736
(dp3058
g2580
g1645
ssI2273055855
(dp3059
g2580
g1646
ssI885797795780845569
(dp3060
g2580
g1722
ssI3710757395
(dp3061
g2580
g1648
ssI784477688979451904
(dp3062
g2580
g1649
ssI137934405
(dp3063
g2592
g907
ssI1540643960
(dp3064
g2592
g933
ssI22064251
(dp3065
g2576
g1138
ssI3291460736
(dp3066
g2580
g1650
ssI169270401
(dp3067
g2580
g1651
ssI894526659101155328
(dp3068
g2580
g1652
ssI897202350502416384
(dp3069
g2580
g1340
ssI845627225516969984
(dp3070
g2580
g1654
ssI156202119
(dp3071
g2580
g1655
ssI3070413495
(dp3072
g2592
g897
ssI2638257292
(dp3073
g2580
g1657
ssI991709378
(dp3074
g2580
g1658
ssI136729742
(dp3075
sI1295719572
(dp3076
g2580
g1659
ssI904859433469177856
(dp3077
g2580
g1221
ssI870757237094051840
(dp3078
g2580
g1660
ssI2710582428
(dp3079
g2580
g1661
ssI759571157448331264
(dp3080
g2580
g1662
ssI928199839
(dp3081
g2580
g1663
ssI743064432
(dp3082
g2580
g1664
ssI896697378262192129
(dp3083
g2580
g1665
ssI233694406
(dp3084
g2580
g1666
ssI848635831199944708
(dp3085
g2592
g876
ssI3436936359
(dp3086
g2580
g1667
ssI4039894185
(dp3087
g2580
g1668
ssI906983148193546240
(dp3088
g2580
g1669
ssI1242977138
(dp3089
g2592
g929
ssI4189297841
(dp3090
g2580
g1670
ssI83705010
(dp3091
g2580
g1671
ssI1047989431
(dp3092
g2580
g1672
ssI884122792026927104
(dp3093
g2580
g1673
ssI394284461
(dp3094
g2580
g1674
ssI252529850
(dp3095
g2580
g1675
ssI3116389565
(dp3096
g2580
g1676
ssI1487393983
(dp3097
g2580
g1677
ssI1915534530
(dp3098
sI582669510
(dp3099
g2580
g1678
ssI1629459656
(dp3100
g2580
g1679
ssI859532256829997056
(dp3101
g2580
g1680
ssI298040523
(dp3102
g2580
g1681
ssI906969480550592518
(dp3103
g2580
g1682
ssI280130770
(dp3104
sI100273699
(dp3105
g2580
g1810
ssI547931350
(dp3106
g2580
g1683
ssI1603552471
(dp3107
g2592
g880
ssI344012417
(dp3108
g2580
g1684
ssI902102511854727168
(dp3109
g2580
g1685
ssI2437086428
(dp3110
g2580
g1686
ssI291069152
(dp3111
g2580
g1687
ssI253299939
(dp3112
g2592
g915
ssI791707249324490752
(dp3113
g2580
g1688
ssI88167658
(dp3114
g2592
g926
ssI207213805
(dp3115
g2580
g1689
ssI421198573
(dp3116
g2580
g1690
ssI2466520308
(dp3117
g2580
g1691
ssI1617304747
(dp3118
g2580
g1436
ssI873958369756930048
(dp3119
g2580
g1693
ssI1429056762
(dp3120
g2580
g1694
ssI715329805433094146
(dp3121
g2580
g1695
ssI1596239100
(dp3122
g2580
g1696
ssI2213803262
(dp3123
g2576
g1147
ssI3387381779
(dp3124
g2580
g1698
ssI2478685441
(dp3125
g2580
g1699
ssI425819395
(dp3126
sI181513716
(dp3127
g2592
g882
ssI885742477461921792
(dp3128
g2580
g1894
ssI396695111
(dp3129
g2580
g1701
ssI893825822699728896
(dp3130
g2580
g1702
ssI3246748343
(dp3131
g2592
g887
ssI117763342
(dp3132
g2580
g1703
ssI843441339840843776
(dp3133
g2580
g1704
ssI3677748496
(dp3134
g2580
g1705
ssI4242265361
(dp3135
g2580
g1706
ssI1307499794
(dp3136
g2580
g1707
ssI1125973268
(dp3137
g2580
g1708
ssI3794943256
(dp3138
g2580
g1709
ssI906968274994434049
(dp3139
g2580
g1710
ssI3108605957
(dp3140
g2580
g1711
ssI19072286
(dp3141
sI3401781125
(dp3142
g2580
g1713
ssI872841928555077633
(dp3143
g2580
g1714
ssI2201793829
(dp3144
g2580
g1715
ssI809304613576908800
(dp3145
g2580
g1716
ssI869261554277113858
(dp3146
g2580
g1717
ssI388771113
(dp3147
g2580
g1718
ssI835623556503449600
(dp3148
g2580
g1719
ssI2493107502
(dp3149
g2580
g1720
ssI4839859503
(dp3150
g2573
(g2575
S'\xda\xd2\xeb\xa0\x00\x00\x00\x00'
tRp3151
g2005
ssI3329195313
(dp3152
g2580
g1908
ssI902654044992409606
(dp3153
g2580
g1723
ssI847180687077785602
(dp3154
g2580
g1724
ssI3701744957
(dp3155
g2580
g1725
ssI1657224510
(dp3156
g2580
g1726
ssI713366847
(dp3157
g2580
g1727
ssI869150312401182722
(dp3158
g2580
g1728
ssI773956253882146816
(dp3159
g2580
g1729
ssI880460393457569792
(dp3160
g2580
g1730
ssI768577061560672256
(dp3161
g2580
g1731
ssI868121908151296000
(dp3162
g2580
g1732
ssI2415011159
(dp3163
g2580
g1733
ssI347753817
(dp3164
g2580
g1734
ssI778284443710676992
(dp3165
g2580
g1735
ssI899289780676165632
(dp3166
g2580
g1736
ssI829046866675372032
(dp3167
g2580
g1737
ssI3415590238
(dp3168
g2580
g1738
ssI154493840
(dp3169
g2592
g884
ssI893181474974744576
(dp3170
g2592
g895
ssI417434981
(dp3171
g2580
g1739
ssI880781226709331968
(dp3172
g2580
g1740
ssI461284712
(dp3173
g2580
g1741
ssI274505066
(dp3174
g2580
g1742
ssI358853997
(dp3175
g2592
g927
ssI802843363036766208
(dp3176
g2580
g1743
ssI706907668171124736
(dp3177
g2580
g1744
ssI899750108253868032
(dp3178
g2580
g1745
ssI888048028342472704
(dp3179
g2580
g1847
ssI186938747
(dp3180
g2580
g1747
ssI4873068778
(dp3181
g2580
g1748
ssI876191141749825540
(dp3182
g2580
g1749
ssI836178363995815936
(dp3183
g2580
g1837
ssI894192879014469632
(dp3184
g2580
g1750
ssI892467846567079936
(dp3185
g2580
g1751
ssI346203529
(dp3186
g2580
g1753
ssI269503883
(dp3187
g2580
g1754
ssI905793705369624577
(dp3188
g2580
g1647
ssI155491224
(dp3189
g2580
g1756
ssI3292253586
(dp3190
g2580
g1757
ssI886146781331025920
(dp3191
g2580
g1758
ssI891906900903813121
(dp3192
g2580
g1759
ssI2179212700
(dp3193
g2580
g1760
ssI876161990397394944
(dp3194
g2580
g1481
ssI721800608
(dp3195
g2580
g1762
ssI3014421922
(dp3196
g2580
g1763
ssI169131427
(dp3197
g2580
g1764
ssI885626317294776321
(dp3198
g2580
g1765
ssI2198091174
(dp3199
g2580
g1766
ssI2243227047
(dp3200
g2580
g1767
ssI303959465
(dp3201
g2580
g1768
ssI782322276675059712
(dp3202
g2580
g1769
ssI770704248954912768
(dp3203
g2580
g1770
ssI4704572845
(dp3204
g2580
g1771
ssI768400634697613312
(dp3205
g2580
g1772
ssI51506610
(dp3206
sI404037047
(dp3207
g2580
g1773
ssI1223202234
(dp3208
g2592
g900
ssI734806553795153921
(dp3209
g2580
g1774
ssI3094343105
(dp3210
g2822
g2331
sg2580
g1775
ssI893584530048790530
(dp3211
g2580
g1223
ssI2276625427
(dp3212
g2580
g1777
ssI2939133381
(dp3213
g2580
g1778
ssI4070120902
(dp3214
g2592
g892
ssI729845191
(dp3215
g2592
g909
ssI296936905
(dp3216
g2580
g1779
ssI3994928591
(dp3217
g2580
g1780
ssI849678537372180480
(dp3218
g2580
g1781
ssI881740822500319232
(dp3219
g2592
g878
ssI2288674262
(dp3220
g2580
g1782
ssI904976962392870912
(dp3221
g2580
g1783
ssI497171364
(dp3222
g2580
g1784
ssI3389562106
(dp3223
g2580
g1785
ssI897681766290509825
(dp3224
g2580
g1656
ssI819921194036166656
(dp3225
g2580
g1787
ssI4284921317
(dp3226
g2580
g1788
ssI1704156648
(dp3227
g2580
g1789
ssI755635394235031553
(dp3228
g2580
g1790
ssI3747716595
(dp3229
g2580
g1791
ssI470384116
(dp3230
g2592
g930
ssI2704506110
(dp3231
g2580
g1697
ssI370726393
(dp3232
g2580
g1792
ssI481461757
(dp3233
sI871055690852446212
(dp3234
g2580
g1793
ssI1080641024
(dp3235
g2580
g1794
ssI635000322
(dp3236
g2580
g1795
ssI3321867779
(dp3237
g2580
g1796
ssI869745301531357185
(dp3238
g2580
g1797
ssI2789150213
(dp3239
g2573
(g2575
S'~\xbeXF\x00\x00\x00\x00'
tRp3240
g2413
sg2580
g1798
ssI2751819270
(dp3241
g2580
g1799
ssI3396189441
(dp3242
g2580
g1800
ssI2160721417
(dp3243
g2580
g1801
ssI3091678733
(dp3244
g2580
g1802
ssI50712079
(dp3245
sI2945101330
(dp3246
sI337612309
(dp3247
g2580
g1805
ssI340821526
(dp3248
g2580
g1806
ssI889483509399683072
(dp3249
g2580
g1808
ssI195051554
(dp3250
g2580
g1809
ssI875039141116993538
(dp3251
g2580
g1527
ssI844519966930092033
(dp3252
g2580
g1811
ssI900906077675499520
(dp3253
g2580
g1812
ssI1265587753
(dp3254
g2580
g1813
ssI905104955182383104
(dp3255
g2580
g1814
ssI2302930476
(dp3256
g2580
g1815
ssI533202479
(dp3257
sI2427747889
(dp3258
g2580
g1816
ssI3131573811
(dp3259
g2580
g1817
ssI884105932304678913
(dp3260
g2580
g1818
ssI2396616793
(dp3261
g2580
g1819
ssI906484226123591680
(dp3262
g2580
g1851
ssI713724139081744384
(dp3263
g2580
g1820
ssI756976820625481728
(dp3264
g2580
g1821
ssI363820603
(dp3265
g2580
g1822
ssI803225918340734976
(dp3266
g2580
g1823
ssI1141659205
(dp3267
g2580
g1824
ssI832725569066278912
(dp3268
g2580
g1825
ssI2472670793
(dp3269
g2580
g1826
ssI1160189515
(dp3270
g2580
g1827
ssI70377037
(dp3271
g2580
g1828
ssI821296724253798400
(dp3272
g2580
g1829
ssI1491517009
(dp3273
g2592
g913
ssI390355588
(dp3274
g2592
g914
ssI885846391414771712
(dp3275
g2580
g1830
ssI107451662
(dp3276
g2580
g1831
ssI793516044816093184
(dp3277
g2580
g1832
ssI3208724061
(dp3278
g2580
g1833
ssI474127968
(dp3279
g2580
g1834
ssI1579980385
(dp3280
g2592
g922
ssI704310298841370624
(dp3281
g2580
g1835
ssI889609988200706048
(dp3282
g2580
g1836
ssI2425410558
(dp3283
sI2727274091
(dp3284
g2580
g1838
ssI232799854
(dp3285
g2580
g1839
ssI743452810625294336
(dp3286
g2580
g1840
ssI543391651
(dp3287
g2580
g1841
ssI815275569046814721
(dp3288
g2580
g1842
ssI3341999734
(dp3289
g2580
g1843
ssI3213291129
(dp3290
g2580
g1844
ssI1180221054
(dp3291
g2580
g1845
ssI848116675731959810
(dp3292
g2580
g1846
ssI906979604111478784
(dp3293
g2580
g1807
ssI2250880280
(dp3294
g2580
g1848
ssI906917960710868992
(dp3295
g2580
g1849
ssI2918080149
(dp3296
g2580
g1850
ssI817848020607922176
(dp3297
g2580
g1387
ssI4144438935
(dp3298
g2580
g1852
ssI333962904
(dp3299
g2580
g1853
ssI850375682366595072
(dp3300
g2592
g932
ssI299812510
(dp3301
g2580
g1854
ssI1077460640
(dp3302
g2580
g1855
ssI906865813969358849
(dp3303
g2580
g1856
ssI2328307368
(dp3304
g2580
g1857
ssI868136197163556864
(dp3305
g2580
g1635
ssI2584108714
(dp3306
g2580
g1858
ssI2961088173
(dp3307
g2580
g1859
ssI754751925652971521
(dp3308
g2580
g1860
ssI217120434
(dp3309
g2580
g1861
ssI1565660852
(dp3310
g2580
g1862
ssI436432568
(dp3311
g2592
g898
ssI1042540220
(dp3312
g2580
g1863
ssI515600063
(dp3313
g2580
g1864
ssI1389014720
(dp3314
g2580
g1865
ssI900859175030464513
(dp3315
g2580
g1950
ssI108394178
(dp3316
g2576
g1137
ssI2263815875
(dp3317
g2580
g1867
ssI1609965253
(dp3318
g2580
g1868
ssI4915406534
(dp3319
g2592
g908
ssI1610244469
(dp3320
g2580
g1299
ssI4806784713
(dp3321
g2580
g1869
ssI379683447
(dp3322
g2580
g1870
ssI857620141118509056
(dp3323
g2580
g1871
ssI893923775082901505
(dp3324
g2580
g1873
ssI2589990614
(dp3325
g2580
g1874
ssI38721239
(dp3326
sI802084714706325505
(dp3327
g2580
g1875
ssI58738398
(dp3328
g2580
g1876
ssI1228494560
(dp3329
g2580
g1877
ssI357670627
(dp3330
g2580
g1878
ssI1271905574
(dp3331
g2580
g1879
ssI322125543
(dp3332
g2580
g1880
ssI868204397779668993
(dp3333
g2580
g1881
ssI3845988077
(dp3334
g2580
g1882
ssI821031326824407040
(dp3335
g2580
g1883
ssI1298695921
(dp3336
g2580
g1884
ssI2778365682
(dp3337
g2580
g1885
ssI2389647093
(dp3338
g2580
g1886
ssI448077560
(dp3339
g2580
g1887
ssI969096954
(dp3340
g2580
g1888
ssI1861840638
(dp3341
g2580
g1889
ssI2343610111
(dp3342
g2580
g1890
ssI905163320046608384
(dp3343
g2580
g1891
ssI613385174
(dp3344
g2580
g1892
ssI903883595458207744
(dp3345
g2580
g1893
ssI861460630850740224
(dp3346
g2580
g1872
ssI599536004
(dp3347
g2580
g1895
ssI2751797003
(dp3348
g2573
(g2575
S'\x0b\x17\x05\xa4\x00\x00\x00\x00'
tRp3349
g2472
sg2580
g1896
ssI2273091342
(dp3350
g2580
g1897
ssI128591631
(dp3351
g2580
g1898
ssI906798942775586817
(dp3352
g2580
g1899
ssI114431764
(dp3353
g2580
g1900
ssI4319160087
(dp3354
g2580
g1901
ssI856403737
(dp3355
g2580
g1902
ssI230268702
(dp3356
g2580
g1903
ssI336977695
(dp3357
g2580
g1904
ssI2182231840
(dp3358
g2580
g1905
ssI905089535847096321
(dp3359
g2580
g1906
ssI905531757730115584
(dp3360
g2580
g1907
ssI906972512650776577
(dp3361
g2580
g1909
ssI905730113450508288
(dp3362
g2580
g1910
ssI74424108
(dp3363
g2592
g893
ssI1267349293
(dp3364
g2580
g1911
ssI2724583215
(dp3365
g2580
g1912
ssI765003572
(dp3366
g2580
g1913
ssI1219841851
(dp3367
g2580
g1914
ssI2387380028
(dp3368
g2580
g1915
ssI51042308
(dp3369
g2592
g903
ssI892342742025736192
(dp3370
g2580
g1916
ssI738408398300012544
(dp3371
g2580
g1917
ssI2848687937
(dp3372
g2580
g1918
ssI906948141055926274
(dp3373
g2580
g1919
ssI2959961925
(dp3374
g2580
g1920
ssI2265673543
(dp3375
g2580
g1921
ssI880813214061166592
(dp3376
g2580
g1922
ssI3300798283
(dp3377
g2580
g1923
ssI3250448206
(dp3378
g2592
g912
ssI875484977164689408
(dp3379
g2580
g1924
ssI528296539
(dp3380
g2580
g1925
ssI2475845465
(dp3381
g2580
g1926
ssI827053288499580928
(dp3382
g2580
g1927
ssI3374350173
(dp3383
g2580
g1928
ssI2223760357
(dp3384
g2580
g1929
ssI366262114
(dp3385
g2580
g1631
ssI63692643
(dp3386
sI832618154232733701
(dp3387
g2580
g1561
ssI802392555807735808
(dp3388
g2576
g1140
ssI908130157
(dp3389
g2580
g1931
ssI906422811195035648
(dp3390
g2580
g1932
ssI807593127120871424
(dp3391
g2580
g1866
ssI853631042749698053
(dp3392
g2580
g1934
ssI753290592847851520
(dp3393
g2580
g1935
ssI2873749766
(dp3394
g2580
g1936
ssI808559753794383872
(dp3395
g2580
g1937
ssI823854735182753792
(dp3396
g2580
g1938
ssI1595481985
(dp3397
g2580
g1939
ssI3004735362
(dp3398
g2580
g1940
ssI1205575555
(dp3399
g2580
g1941
ssI896380708465373185
(dp3400
g2580
g1942
ssI737023638
(dp3401
g2580
g1943
ssI787021894331592704
(dp3402
g2580
g1692
ssI2617710473
(dp3403
g2580
g1945
ssI212719501
(dp3404
g2580
g1946
ssI626835343
(dp3405
g2592
g883
ssI1519617937
(dp3406
g2580
g1947
ssI892122604898840576
(dp3407
g2580
g1948
ssI543336346
(dp3408
g2580
g1949
ssI890279714375573505
(dp3409
g2580
g1432
ssI2968602526
(dp3410
g2580
g1951
ssI708048802
(dp3411
g2592
g890
ssI1636335715
(dp3412
g2580
g1952
ssI721723193619312641
(dp3413
g2580
g1953
ssI3092416421
(dp3414
g2580
g1954
ssI901607985641914368
(dp3415
g2580
g1955
ssI804959292424077312
(dp3416
g2580
g1956
ssI705650612
(dp3417
g2580
g1957
ssI893566207588225025
(dp3418
g2592
g891
ssI860415357865140225
(dp3419
g2580
g1958
ssI183166915
(dp3420
g2580
g1959
ssI4075970055
(dp3421
g2580
g1960
ssI4515716422
(dp3422
g2580
g1961
ssI861577506075365376
(dp3423
g2580
g1962
ssI187099469
(dp3424
g2576
g1143
ssI321298384
(dp3425
g2580
g1963
ssI3695245517
(dp3426
g2580
g1964
ssI3036297891
(dp3427
g2580
g1965
ssI784407165146656768
(dp3428
g2580
g1966
ssI2729445333
(dp3429
g2580
g1967
ssI3522000869
(dp3430
g2580
g1968
ssI899036797048696832
(dp3431
g2580
g1969
ssI232513512
(dp3432
g2580
g1970
ssI883027621600165888
(dp3433
g2580
g1227
ssI838762132003045376
(dp3434
g2580
g1972
ssI706992278003392512
(dp3435
g2580
g1973
ssI764205371699425280
(dp3436
g2580
g1537
ssI1622892535
(dp3437
g2580
g1974
ssI2325680120
(dp3438
g2580
g1975
ssI17158140
(dp3439
g2592
g925
ssI801785410238214148
(dp3440
g2580
g1976
sssb.